---
triple:          'arm64-apple-darwin'
binary-path:     babysat
relocations:
  - { offsetInCU: 0x52, offset: 0x52, size: 0x8, addend: 0x0, symName: _usage, symObjAddr: 0x9938, symBinAddr: 0x100010000, symSize: 0x0 }
  - { offsetInCU: 0x6C, offset: 0x6C, size: 0x8, addend: 0x0, symName: __ZL7clauses, symObjAddr: 0x41F28, symBinAddr: 0x100010018, symSize: 0x0 }
  - { offsetInCU: 0x7E74, offset: 0x7E74, size: 0x8, addend: 0x0, symName: __ZNSt3__112__to_addressB8ue170006IiEEPT_S2_, symObjAddr: 0x1B50, symBinAddr: 0x100003A5C, symSize: 0x14 }
  - { offsetInCU: 0x7EA9, offset: 0x7EA9, size: 0x8, addend: 0x0, symName: __ZNSt3__13maxB8ue170006ImEERKT_S3_S3_, symObjAddr: 0x1F6C, symBinAddr: 0x100003E78, symSize: 0x2C }
  - { offsetInCU: 0x7EEC, offset: 0x7EEC, size: 0x8, addend: 0x0, symName: __ZNSt3__13minB8ue170006ImEERKT_S3_S3_, symObjAddr: 0x1F98, symBinAddr: 0x100003EA4, symSize: 0x2C }
  - { offsetInCU: 0x8119, offset: 0x8119, size: 0x8, addend: 0x0, symName: __ZNSt3__13minB8ue170006ImNS_6__lessIvvEEEERKT_S5_S5_T0_, symObjAddr: 0x2030, symBinAddr: 0x100003F3C, symSize: 0x54 }
  - { offsetInCU: 0x81B8, offset: 0x81B8, size: 0x8, addend: 0x0, symName: __ZNSt3__120__throw_length_errorB8ue170006EPKc, symObjAddr: 0x210C, symBinAddr: 0x100004018, symSize: 0x64 }
  - { offsetInCU: 0x81E2, offset: 0x81E2, size: 0x8, addend: 0x0, symName: __ZNSt3__13maxB8ue170006ImNS_6__lessIvvEEEERKT_S5_S5_T0_, symObjAddr: 0x2250, symBinAddr: 0x10000415C, symSize: 0x54 }
  - { offsetInCU: 0x823C, offset: 0x823C, size: 0x8, addend: 0x0, symName: __ZNSt3__119__allocate_at_leastB8ue170006INS_9allocatorIiEEEENS_19__allocation_resultINS_16allocator_traitsIT_E7pointerEEERS5_m, symObjAddr: 0x23B4, symBinAddr: 0x1000042C0, symSize: 0x40 }
  - { offsetInCU: 0x827F, offset: 0x827F, size: 0x8, addend: 0x0, symName: __ZNSt3__117__libcpp_allocateB8ue170006Emm, symObjAddr: 0x2554, symBinAddr: 0x100004460, symSize: 0x60 }
  - { offsetInCU: 0x82D9, offset: 0x82D9, size: 0x8, addend: 0x0, symName: __ZNSt3__124__is_overaligned_for_newB8ue170006Em, symObjAddr: 0x25B4, symBinAddr: 0x1000044C0, symSize: 0x20 }
  - { offsetInCU: 0x8307, offset: 0x8307, size: 0x8, addend: 0x0, symName: __ZNSt3__121__libcpp_operator_newB8ue170006IJmSt11align_val_tEEEPvDpT_, symObjAddr: 0x25D4, symBinAddr: 0x1000044E0, symSize: 0x2C }
  - { offsetInCU: 0x8354, offset: 0x8354, size: 0x8, addend: 0x0, symName: __ZNSt3__121__libcpp_operator_newB8ue170006IJmEEEPvDpT_, symObjAddr: 0x2600, symBinAddr: 0x10000450C, symSize: 0x24 }
  - { offsetInCU: 0x838D, offset: 0x838D, size: 0x8, addend: 0x0, symName: __ZNSt3__142__uninitialized_allocator_move_if_noexceptB8ue170006INS_9allocatorIiEENS_16reverse_iteratorIPiEES5_ivEET1_RT_T0_S9_S6_, symObjAddr: 0x2740, symBinAddr: 0x10000464C, symSize: 0x78 }
  - { offsetInCU: 0x840A, offset: 0x840A, size: 0x8, addend: 0x0, symName: __ZNSt3__14swapB8ue170006IPiEENS_9enable_ifIXaasr21is_move_constructibleIT_EE5valuesr18is_move_assignableIS3_EE5valueEvE4typeERS3_S6_, symObjAddr: 0x2804, symBinAddr: 0x100004710, symSize: 0x3C }
  - { offsetInCU: 0x845B, offset: 0x845B, size: 0x8, addend: 0x0, symName: __ZNSt3__14moveB8ue170006INS_16reverse_iteratorIPiEES3_EET0_T_S5_S4_, symObjAddr: 0x2934, symBinAddr: 0x100004840, symSize: 0x78 }
  - { offsetInCU: 0x84B5, offset: 0x84B5, size: 0x8, addend: 0x0, symName: __ZNSt3__16__moveB8ue170006INS_17_ClassicAlgPolicyENS_16reverse_iteratorIPiEES4_S4_EENS_4pairIT0_T2_EES6_T1_S7_, symObjAddr: 0x29AC, symBinAddr: 0x1000048B8, symSize: 0x64 }
  - { offsetInCU: 0x8521, offset: 0x8521, size: 0x8, addend: 0x0, symName: __ZNSt3__123__dispatch_copy_or_moveB8ue170006INS_17_ClassicAlgPolicyENS_11__move_loopIS1_EENS_14__move_trivialENS_16reverse_iteratorIPiEES7_S7_EENS_4pairIT2_T4_EES9_T3_SA_, symObjAddr: 0x2A10, symBinAddr: 0x10000491C, symSize: 0x64 }
  - { offsetInCU: 0x859F, offset: 0x859F, size: 0x8, addend: 0x0, symName: __ZNSt3__121__unwrap_and_dispatchB8ue170006INS_10__overloadINS_11__move_loopINS_17_ClassicAlgPolicyEEENS_14__move_trivialEEENS_16reverse_iteratorIPiEES9_S9_Li0EEENS_4pairIT0_T2_EESB_T1_SC_, symObjAddr: 0x2A74, symBinAddr: 0x100004980, symSize: 0x12C }
  - { offsetInCU: 0x862F, offset: 0x862F, size: 0x8, addend: 0x0, symName: __ZNSt3__114__unwrap_rangeB8ue170006INS_16reverse_iteratorIPiEES3_EENS_4pairIT0_S5_EET_S7_, symObjAddr: 0x2BA0, symBinAddr: 0x100004AAC, symSize: 0x84 }
  - { offsetInCU: 0x8828, offset: 0x8828, size: 0x8, addend: 0x0, symName: __ZNSt3__113__unwrap_iterB8ue170006INS_16reverse_iteratorIPiEENS_18__unwrap_iter_implIS3_Lb0EEELi0EEEDTclsrT0_8__unwrapclsr3stdE7declvalIT_EEEES7_, symObjAddr: 0x2CC4, symBinAddr: 0x100004BD0, symSize: 0x44 }
  - { offsetInCU: 0x886C, offset: 0x886C, size: 0x8, addend: 0x0, symName: __ZNSt3__19make_pairB8ue170006INS_16reverse_iteratorIPiEES3_EENS_4pairINS_18__unwrap_ref_decayIT_E4typeENS5_IT0_E4typeEEEOS6_OS9_, symObjAddr: 0x2D08, symBinAddr: 0x100004C14, symSize: 0x38 }
  - { offsetInCU: 0x88BB, offset: 0x88BB, size: 0x8, addend: 0x0, symName: __ZNSt3__114__rewrap_rangeB8ue170006INS_16reverse_iteratorIPiEES3_EET_S4_T0_, symObjAddr: 0x2D40, symBinAddr: 0x100004C4C, symSize: 0x5C }
  - { offsetInCU: 0x8907, offset: 0x8907, size: 0x8, addend: 0x0, symName: __ZNSt3__113__rewrap_iterB8ue170006INS_16reverse_iteratorIPiEES3_NS_18__unwrap_iter_implIS3_Lb0EEEEET_S6_T0_, symObjAddr: 0x2D9C, symBinAddr: 0x100004CA8, symSize: 0x74 }
  - { offsetInCU: 0x895C, offset: 0x895C, size: 0x8, addend: 0x0, symName: __ZNSt3__1neB8ue170006IPiS1_EEbRKNS_16reverse_iteratorIT_EERKNS2_IT0_EE, symObjAddr: 0x2E10, symBinAddr: 0x100004D1C, symSize: 0x48 }
  - { offsetInCU: 0x8AC0, offset: 0x8AC0, size: 0x8, addend: 0x0, symName: __ZNSt3__119__libcpp_deallocateB8ue170006EPvmm, symObjAddr: 0x3208, symBinAddr: 0x100005114, symSize: 0x60 }
  - { offsetInCU: 0x8B25, offset: 0x8B25, size: 0x8, addend: 0x0, symName: __ZNSt3__127__do_deallocate_handle_sizeB8ue170006IJSt11align_val_tEEEvPvmDpT_, symObjAddr: 0x3268, symBinAddr: 0x100005174, symSize: 0x30 }
  - { offsetInCU: 0x8B78, offset: 0x8B78, size: 0x8, addend: 0x0, symName: __ZNSt3__127__do_deallocate_handle_sizeB8ue170006IJEEEvPvmDpT_, symObjAddr: 0x3298, symBinAddr: 0x1000051A4, symSize: 0x28 }
  - { offsetInCU: 0x8BB6, offset: 0x8BB6, size: 0x8, addend: 0x0, symName: __ZNSt3__124__libcpp_operator_deleteB8ue170006IJPvSt11align_val_tEEEvDpT_, symObjAddr: 0x32C0, symBinAddr: 0x1000051CC, symSize: 0x2C }
  - { offsetInCU: 0x8BFF, offset: 0x8BFF, size: 0x8, addend: 0x0, symName: __ZNSt3__124__libcpp_operator_deleteB8ue170006IJPvEEEvDpT_, symObjAddr: 0x32EC, symBinAddr: 0x1000051F8, symSize: 0x24 }
  - { offsetInCU: 0x8C34, offset: 0x8C34, size: 0x8, addend: 0x0, symName: __ZNSt3__1neB8ue170006IPiEEbRKNS_11__wrap_iterIT_EES6_, symObjAddr: 0x33E4, symBinAddr: 0x1000052F0, symSize: 0x34 }
  - { offsetInCU: 0x8C77, offset: 0x8C77, size: 0x8, addend: 0x0, symName: __ZNSt3__1eqB8ue170006IPiEEbRKNS_11__wrap_iterIT_EES6_, symObjAddr: 0x3948, symBinAddr: 0x100005854, symSize: 0x48 }
  - { offsetInCU: 0x8CBA, offset: 0x8CBA, size: 0x8, addend: 0x0, symName: __ZNSt3__112__to_addressB8ue170006IP6clauseEEPT_S4_, symObjAddr: 0x3E1C, symBinAddr: 0x100005D28, symSize: 0x14 }
  - { offsetInCU: 0x8CEF, offset: 0x8CEF, size: 0x8, addend: 0x0, symName: __ZNSt3__119__allocate_at_leastB8ue170006INS_9allocatorIP6clauseEEEENS_19__allocation_resultINS_16allocator_traitsIT_E7pointerEEERS7_m, symObjAddr: 0x4418, symBinAddr: 0x100006324, symSize: 0x40 }
  - { offsetInCU: 0x8D32, offset: 0x8D32, size: 0x8, addend: 0x0, symName: __ZNSt3__142__uninitialized_allocator_move_if_noexceptB8ue170006INS_9allocatorIP6clauseEENS_16reverse_iteratorIPS3_EES7_S3_vEET1_RT_T0_SB_S8_, symObjAddr: 0x46A0, symBinAddr: 0x1000065AC, symSize: 0x78 }
  - { offsetInCU: 0x8DAF, offset: 0x8DAF, size: 0x8, addend: 0x0, symName: __ZNSt3__14swapB8ue170006IPP6clauseEENS_9enable_ifIXaasr21is_move_constructibleIT_EE5valuesr18is_move_assignableIS5_EE5valueEvE4typeERS5_S8_, symObjAddr: 0x4764, symBinAddr: 0x100006670, symSize: 0x3C }
  - { offsetInCU: 0x8E00, offset: 0x8E00, size: 0x8, addend: 0x0, symName: __ZNSt3__14moveB8ue170006INS_16reverse_iteratorIPP6clauseEES5_EET0_T_S7_S6_, symObjAddr: 0x4894, symBinAddr: 0x1000067A0, symSize: 0x78 }
  - { offsetInCU: 0x8E5A, offset: 0x8E5A, size: 0x8, addend: 0x0, symName: __ZNSt3__16__moveB8ue170006INS_17_ClassicAlgPolicyENS_16reverse_iteratorIPP6clauseEES6_S6_EENS_4pairIT0_T2_EES8_T1_S9_, symObjAddr: 0x490C, symBinAddr: 0x100006818, symSize: 0x64 }
  - { offsetInCU: 0x8EC6, offset: 0x8EC6, size: 0x8, addend: 0x0, symName: __ZNSt3__123__dispatch_copy_or_moveB8ue170006INS_17_ClassicAlgPolicyENS_11__move_loopIS1_EENS_14__move_trivialENS_16reverse_iteratorIPP6clauseEES9_S9_EENS_4pairIT2_T4_EESB_T3_SC_, symObjAddr: 0x4970, symBinAddr: 0x10000687C, symSize: 0x64 }
  - { offsetInCU: 0x8F44, offset: 0x8F44, size: 0x8, addend: 0x0, symName: __ZNSt3__121__unwrap_and_dispatchB8ue170006INS_10__overloadINS_11__move_loopINS_17_ClassicAlgPolicyEEENS_14__move_trivialEEENS_16reverse_iteratorIPP6clauseEESB_SB_Li0EEENS_4pairIT0_T2_EESD_T1_SE_, symObjAddr: 0x49D4, symBinAddr: 0x1000068E0, symSize: 0x12C }
  - { offsetInCU: 0x8FD4, offset: 0x8FD4, size: 0x8, addend: 0x0, symName: __ZNSt3__114__unwrap_rangeB8ue170006INS_16reverse_iteratorIPP6clauseEES5_EENS_4pairIT0_S7_EET_S9_, symObjAddr: 0x4B00, symBinAddr: 0x100006A0C, symSize: 0x84 }
  - { offsetInCU: 0x90F4, offset: 0x90F4, size: 0x8, addend: 0x0, symName: __ZNSt3__113__unwrap_iterB8ue170006INS_16reverse_iteratorIPP6clauseEENS_18__unwrap_iter_implIS5_Lb0EEELi0EEEDTclsrT0_8__unwrapclsr3stdE7declvalIT_EEEES9_, symObjAddr: 0x4C24, symBinAddr: 0x100006B30, symSize: 0x44 }
  - { offsetInCU: 0x9138, offset: 0x9138, size: 0x8, addend: 0x0, symName: __ZNSt3__19make_pairB8ue170006INS_16reverse_iteratorIPP6clauseEES5_EENS_4pairINS_18__unwrap_ref_decayIT_E4typeENS7_IT0_E4typeEEEOS8_OSB_, symObjAddr: 0x4C68, symBinAddr: 0x100006B74, symSize: 0x38 }
  - { offsetInCU: 0x9187, offset: 0x9187, size: 0x8, addend: 0x0, symName: __ZNSt3__114__rewrap_rangeB8ue170006INS_16reverse_iteratorIPP6clauseEES5_EET_S6_T0_, symObjAddr: 0x4CA0, symBinAddr: 0x100006BAC, symSize: 0x5C }
  - { offsetInCU: 0x91D3, offset: 0x91D3, size: 0x8, addend: 0x0, symName: __ZNSt3__113__rewrap_iterB8ue170006INS_16reverse_iteratorIPP6clauseEES5_NS_18__unwrap_iter_implIS5_Lb0EEEEET_S8_T0_, symObjAddr: 0x4CFC, symBinAddr: 0x100006C08, symSize: 0x74 }
  - { offsetInCU: 0x9228, offset: 0x9228, size: 0x8, addend: 0x0, symName: __ZNSt3__1neB8ue170006IPP6clauseS3_EEbRKNS_16reverse_iteratorIT_EERKNS4_IT0_EE, symObjAddr: 0x4D70, symBinAddr: 0x100006C7C, symSize: 0x48 }
  - { offsetInCU: 0x92E0, offset: 0x92E0, size: 0x8, addend: 0x0, symName: __ZNSt3__1neB8ue170006IPP6clauseEEbRKNS_11__wrap_iterIT_EES8_, symObjAddr: 0x5E68, symBinAddr: 0x100007D74, symSize: 0x34 }
  - { offsetInCU: 0x9323, offset: 0x9323, size: 0x8, addend: 0x0, symName: __ZNSt3__1eqB8ue170006IPP6clauseEEbRKNS_11__wrap_iterIT_EES8_, symObjAddr: 0x6248, symBinAddr: 0x100008154, symSize: 0x48 }
  - { offsetInCU: 0x9366, offset: 0x9366, size: 0x8, addend: 0x0, symName: __ZNSt3__112__to_addressB8ue170006IjEEPT_S2_, symObjAddr: 0x6C74, symBinAddr: 0x100008B80, symSize: 0x14 }
  - { offsetInCU: 0x939B, offset: 0x939B, size: 0x8, addend: 0x0, symName: __ZNSt3__119__allocate_at_leastB8ue170006INS_9allocatorIjEEEENS_19__allocation_resultINS_16allocator_traitsIT_E7pointerEEERS5_m, symObjAddr: 0x75BC, symBinAddr: 0x1000094C8, symSize: 0x40 }
  - { offsetInCU: 0x93DE, offset: 0x93DE, size: 0x8, addend: 0x0, symName: __ZNSt3__142__uninitialized_allocator_move_if_noexceptB8ue170006INS_9allocatorIjEENS_16reverse_iteratorIPjEES5_jvEET1_RT_T0_S9_S6_, symObjAddr: 0x7844, symBinAddr: 0x100009750, symSize: 0x78 }
  - { offsetInCU: 0x945B, offset: 0x945B, size: 0x8, addend: 0x0, symName: __ZNSt3__14swapB8ue170006IPjEENS_9enable_ifIXaasr21is_move_constructibleIT_EE5valuesr18is_move_assignableIS3_EE5valueEvE4typeERS3_S6_, symObjAddr: 0x7908, symBinAddr: 0x100009814, symSize: 0x3C }
  - { offsetInCU: 0x94AC, offset: 0x94AC, size: 0x8, addend: 0x0, symName: __ZNSt3__14moveB8ue170006INS_16reverse_iteratorIPjEES3_EET0_T_S5_S4_, symObjAddr: 0x79F0, symBinAddr: 0x1000098FC, symSize: 0x78 }
  - { offsetInCU: 0x9506, offset: 0x9506, size: 0x8, addend: 0x0, symName: __ZNSt3__16__moveB8ue170006INS_17_ClassicAlgPolicyENS_16reverse_iteratorIPjEES4_S4_EENS_4pairIT0_T2_EES6_T1_S7_, symObjAddr: 0x7A68, symBinAddr: 0x100009974, symSize: 0x64 }
  - { offsetInCU: 0x9572, offset: 0x9572, size: 0x8, addend: 0x0, symName: __ZNSt3__123__dispatch_copy_or_moveB8ue170006INS_17_ClassicAlgPolicyENS_11__move_loopIS1_EENS_14__move_trivialENS_16reverse_iteratorIPjEES7_S7_EENS_4pairIT2_T4_EES9_T3_SA_, symObjAddr: 0x7ACC, symBinAddr: 0x1000099D8, symSize: 0x64 }
  - { offsetInCU: 0x95F0, offset: 0x95F0, size: 0x8, addend: 0x0, symName: __ZNSt3__121__unwrap_and_dispatchB8ue170006INS_10__overloadINS_11__move_loopINS_17_ClassicAlgPolicyEEENS_14__move_trivialEEENS_16reverse_iteratorIPjEES9_S9_Li0EEENS_4pairIT0_T2_EESB_T1_SC_, symObjAddr: 0x7B30, symBinAddr: 0x100009A3C, symSize: 0x12C }
  - { offsetInCU: 0x9680, offset: 0x9680, size: 0x8, addend: 0x0, symName: __ZNSt3__114__unwrap_rangeB8ue170006INS_16reverse_iteratorIPjEES3_EENS_4pairIT0_S5_EET_S7_, symObjAddr: 0x7C5C, symBinAddr: 0x100009B68, symSize: 0x84 }
  - { offsetInCU: 0x97A0, offset: 0x97A0, size: 0x8, addend: 0x0, symName: __ZNSt3__113__unwrap_iterB8ue170006INS_16reverse_iteratorIPjEENS_18__unwrap_iter_implIS3_Lb0EEELi0EEEDTclsrT0_8__unwrapclsr3stdE7declvalIT_EEEES7_, symObjAddr: 0x7D80, symBinAddr: 0x100009C8C, symSize: 0x44 }
  - { offsetInCU: 0x97E4, offset: 0x97E4, size: 0x8, addend: 0x0, symName: __ZNSt3__19make_pairB8ue170006INS_16reverse_iteratorIPjEES3_EENS_4pairINS_18__unwrap_ref_decayIT_E4typeENS5_IT0_E4typeEEEOS6_OS9_, symObjAddr: 0x7DC4, symBinAddr: 0x100009CD0, symSize: 0x38 }
  - { offsetInCU: 0x9833, offset: 0x9833, size: 0x8, addend: 0x0, symName: __ZNSt3__114__rewrap_rangeB8ue170006INS_16reverse_iteratorIPjEES3_EET_S4_T0_, symObjAddr: 0x7DFC, symBinAddr: 0x100009D08, symSize: 0x5C }
  - { offsetInCU: 0x987F, offset: 0x987F, size: 0x8, addend: 0x0, symName: __ZNSt3__113__rewrap_iterB8ue170006INS_16reverse_iteratorIPjEES3_NS_18__unwrap_iter_implIS3_Lb0EEEEET_S6_T0_, symObjAddr: 0x7E58, symBinAddr: 0x100009D64, symSize: 0x74 }
  - { offsetInCU: 0x98D4, offset: 0x98D4, size: 0x8, addend: 0x0, symName: __ZNSt3__1neB8ue170006IPjS1_EEbRKNS_16reverse_iteratorIT_EERKNS2_IT0_EE, symObjAddr: 0x7ECC, symBinAddr: 0x100009DD8, symSize: 0x48 }
  - { offsetInCU: 0x9CA3, offset: 0x9CA3, size: 0x8, addend: 0x0, symName: __ZSt28__throw_bad_array_new_lengthB8ue170006v, symObjAddr: 0x2520, symBinAddr: 0x10000442C, symSize: 0x34 }
  - { offsetInCU: 0x9F2C, offset: 0x9F2C, size: 0x8, addend: 0x0, symName: __ZL5trail, symObjAddr: 0x41F40, symBinAddr: 0x100010030, symSize: 0x0 }
  - { offsetInCU: 0xA0C1, offset: 0xA0C1, size: 0x8, addend: 0x0, symName: __ZL7learned, symObjAddr: 0x41F58, symBinAddr: 0x100010048, symSize: 0x0 }
  - { offsetInCU: 0xA0DA, offset: 0xA0DA, size: 0x8, addend: 0x0, symName: __ZL4seen, symObjAddr: 0x41F70, symBinAddr: 0x100010060, symSize: 0x0 }
  - { offsetInCU: 0xA0F3, offset: 0xA0F3, size: 0x8, addend: 0x0, symName: __ZL7control, symObjAddr: 0x41F88, symBinAddr: 0x100010078, symSize: 0x0 }
  - { offsetInCU: 0xA279, offset: 0xA279, size: 0x8, addend: 0x0, symName: __ZL9verbosity, symObjAddr: 0x41FA0, symBinAddr: 0x100010090, symSize: 0x0 }
  - { offsetInCU: 0xA292, offset: 0xA292, size: 0x8, addend: 0x0, symName: __ZL7witness, symObjAddr: 0x9940, symBinAddr: 0x100010008, symSize: 0x0 }
  - { offsetInCU: 0xA2AB, offset: 0xA2AB, size: 0x8, addend: 0x0, symName: __ZL5proof, symObjAddr: 0x41FA4, symBinAddr: 0x100010094, symSize: 0x0 }
  - { offsetInCU: 0xA2C5, offset: 0xA2C5, size: 0x8, addend: 0x0, symName: __ZL9file_name, symObjAddr: 0x41FA8, symBinAddr: 0x100010098, symSize: 0x0 }
  - { offsetInCU: 0xA2DF, offset: 0xA2DF, size: 0x8, addend: 0x0, symName: __ZL10close_file, symObjAddr: 0x41FB0, symBinAddr: 0x1000100A0, symSize: 0x0 }
  - { offsetInCU: 0xA2F9, offset: 0xA2F9, size: 0x8, addend: 0x0, symName: __ZL4file, symObjAddr: 0x41FB8, symBinAddr: 0x1000100A8, symSize: 0x0 }
  - { offsetInCU: 0xA4FF, offset: 0xA4FF, size: 0x8, addend: 0x0, symName: __ZL9variables, symObjAddr: 0x41FC0, symBinAddr: 0x1000100B0, symSize: 0x0 }
  - { offsetInCU: 0xA518, offset: 0xA518, size: 0x8, addend: 0x0, symName: __ZL6values, symObjAddr: 0x41FC8, symBinAddr: 0x1000100B8, symSize: 0x0 }
  - { offsetInCU: 0xA53D, offset: 0xA53D, size: 0x8, addend: 0x0, symName: __ZL6levels, symObjAddr: 0x41FD0, symBinAddr: 0x1000100C0, symSize: 0x0 }
  - { offsetInCU: 0xA556, offset: 0xA556, size: 0x8, addend: 0x0, symName: __ZL7reasons, symObjAddr: 0x41FD8, symBinAddr: 0x1000100C8, symSize: 0x0 }
  - { offsetInCU: 0xA56F, offset: 0xA56F, size: 0x8, addend: 0x0, symName: __ZL5marks, symObjAddr: 0x41FE0, symBinAddr: 0x1000100D0, symSize: 0x0 }
  - { offsetInCU: 0xA58D, offset: 0xA58D, size: 0x8, addend: 0x0, symName: __ZL7watches, symObjAddr: 0x41FE8, symBinAddr: 0x1000100D8, symSize: 0x0 }
  - { offsetInCU: 0xA5AB, offset: 0xA5AB, size: 0x8, addend: 0x0, symName: __ZL10propagated, symObjAddr: 0x41FF0, symBinAddr: 0x1000100E0, symSize: 0x0 }
  - { offsetInCU: 0xA5C4, offset: 0xA5C4, size: 0x8, addend: 0x0, symName: __ZL5level, symObjAddr: 0x41FF4, symBinAddr: 0x1000100E4, symSize: 0x0 }
  - { offsetInCU: 0xA5DD, offset: 0xA5DD, size: 0x8, addend: 0x0, symName: __ZL5added, symObjAddr: 0x41FF8, symBinAddr: 0x1000100E8, symSize: 0x0 }
  - { offsetInCU: 0xA5F6, offset: 0xA5F6, size: 0x8, addend: 0x0, symName: __ZL12debug_buffer, symObjAddr: 0x42008, symBinAddr: 0x1000100F8, symSize: 0x0 }
  - { offsetInCU: 0xA621, offset: 0xA621, size: 0x8, addend: 0x0, symName: __ZL17next_debug_buffer, symObjAddr: 0x42088, symBinAddr: 0x100010178, symSize: 0x0 }
  - { offsetInCU: 0xA63A, offset: 0xA63A, size: 0x8, addend: 0x0, symName: __ZL12empty_clause, symObjAddr: 0x42000, symBinAddr: 0x1000100F0, symSize: 0x0 }
  - { offsetInCU: 0xA653, offset: 0xA653, size: 0x8, addend: 0x0, symName: __ZL5fixed, symObjAddr: 0x42090, symBinAddr: 0x100010180, symSize: 0x0 }
  - { offsetInCU: 0xA66C, offset: 0xA66C, size: 0x8, addend: 0x0, symName: __ZL9iterating, symObjAddr: 0x42094, symBinAddr: 0x100010184, symSize: 0x0 }
  - { offsetInCU: 0xA685, offset: 0xA685, size: 0x8, addend: 0x0, symName: __ZL15decision_reason, symObjAddr: 0x42098, symBinAddr: 0x100010188, symSize: 0x0 }
  - { offsetInCU: 0xA69E, offset: 0xA69E, size: 0x8, addend: 0x0, symName: __ZL16flipped_decision, symObjAddr: 0x9948, symBinAddr: 0x100010010, symSize: 0x0 }
  - { offsetInCU: 0xA6B7, offset: 0xA6B7, size: 0x8, addend: 0x0, symName: __ZL13pseudo_reason, symObjAddr: 0x420A0, symBinAddr: 0x100010190, symSize: 0x0 }
  - { offsetInCU: 0xA6D0, offset: 0xA6D0, size: 0x8, addend: 0x0, symName: __ZL7reports, symObjAddr: 0x420B0, symBinAddr: 0x1000101A0, symSize: 0x0 }
  - { offsetInCU: 0xA6E9, offset: 0xA6E9, size: 0x8, addend: 0x0, symName: __ZL9conflicts, symObjAddr: 0x420B8, symBinAddr: 0x1000101A8, symSize: 0x0 }
  - { offsetInCU: 0xA71C, offset: 0xA71C, size: 0x8, addend: 0x0, symName: __ZL12propagations, symObjAddr: 0x420C0, symBinAddr: 0x1000101B0, symSize: 0x0 }
  - { offsetInCU: 0xA735, offset: 0xA735, size: 0x8, addend: 0x0, symName: __ZL9decisions, symObjAddr: 0x420C8, symBinAddr: 0x1000101B8, symSize: 0x0 }
  - { offsetInCU: 0xA8FD, offset: 0xA8FD, size: 0x8, addend: 0x0, symName: __ZNSt3__16vectorIiNS_9allocatorIiEEE26__swap_out_circular_bufferERNS_14__split_bufferIiRS2_EE, symObjAddr: 0x1D74, symBinAddr: 0x100003C80, symSize: 0x110 }
  - { offsetInCU: 0xA952, offset: 0xA952, size: 0x8, addend: 0x0, symName: __ZNSt3__16vectorIP6clauseNS_9allocatorIS2_EEE26__swap_out_circular_bufferERNS_14__split_bufferIS2_RS4_EE, symObjAddr: 0x4018, symBinAddr: 0x100005F24, symSize: 0x110 }
  - { offsetInCU: 0xA9A7, offset: 0xA9A7, size: 0x8, addend: 0x0, symName: __ZNSt3__16vectorIjNS_9allocatorIjEEE26__swap_out_circular_bufferERNS_14__split_bufferIjRS2_EE, symObjAddr: 0x725C, symBinAddr: 0x100009168, symSize: 0x110 }
  - { offsetInCU: 0xCAB8, offset: 0xCAB8, size: 0x8, addend: 0x0, symName: __ZNSt3__16vectorIP6clauseNS_9allocatorIS2_EEEC1B8ue170006Ev, symObjAddr: 0x0, symBinAddr: 0x100001F0C, symSize: 0x2C }
  - { offsetInCU: 0xCAE0, offset: 0xCAE0, size: 0x8, addend: 0x0, symName: __ZNSt3__16vectorIP6clauseNS_9allocatorIS2_EEED1B8ue170006Ev, symObjAddr: 0x2C, symBinAddr: 0x100001F38, symSize: 0x2C }
  - { offsetInCU: 0xCB08, offset: 0xCB08, size: 0x8, addend: 0x0, symName: __ZNSt3__16vectorIiNS_9allocatorIiEEEC1B8ue170006Ev, symObjAddr: 0x58, symBinAddr: 0x100001F64, symSize: 0x2C }
  - { offsetInCU: 0xCB30, offset: 0xCB30, size: 0x8, addend: 0x0, symName: __ZNSt3__16vectorIiNS_9allocatorIiEEED1B8ue170006Ev, symObjAddr: 0x84, symBinAddr: 0x100001F90, symSize: 0x2C }
  - { offsetInCU: 0xCB58, offset: 0xCB58, size: 0x8, addend: 0x0, symName: __ZNSt3__16vectorIjNS_9allocatorIjEEEC1B8ue170006Ev, symObjAddr: 0xB0, symBinAddr: 0x100001FBC, symSize: 0x2C }
  - { offsetInCU: 0xCB80, offset: 0xCB80, size: 0x8, addend: 0x0, symName: __ZNSt3__16vectorIjNS_9allocatorIjEEED1B8ue170006Ev, symObjAddr: 0xDC, symBinAddr: 0x100001FE8, symSize: 0x2C }
  - { offsetInCU: 0xCBA9, offset: 0xCBA9, size: 0x8, addend: 0x0, symName: _main, symObjAddr: 0x108, symBinAddr: 0x100002014, symSize: 0x570 }
  - { offsetInCU: 0xCC2B, offset: 0xCC2B, size: 0x8, addend: 0x0, symName: __ZL3diePKcz, symObjAddr: 0x678, symBinAddr: 0x100002584, symSize: 0x64 }
  - { offsetInCU: 0xCC62, offset: 0xCC62, size: 0x8, addend: 0x0, symName: __ZL7messagePKcz, symObjAddr: 0x6DC, symBinAddr: 0x1000025E8, symSize: 0x90 }
  - { offsetInCU: 0xCC99, offset: 0xCC99, size: 0x8, addend: 0x0, symName: __ZL4linev, symObjAddr: 0x76C, symBinAddr: 0x100002678, symSize: 0x60 }
  - { offsetInCU: 0xCCB2, offset: 0xCCB2, size: 0x8, addend: 0x0, symName: __ZL5parsev, symObjAddr: 0x7CC, symBinAddr: 0x1000026D8, symSize: 0x354 }
  - { offsetInCU: 0xCD18, offset: 0xCD18, size: 0x8, addend: 0x0, symName: __ZL6reportc, symObjAddr: 0xB20, symBinAddr: 0x100002A2C, symSize: 0x198 }
  - { offsetInCU: 0xCD51, offset: 0xCD51, size: 0x8, addend: 0x0, symName: __ZL5solvev, symObjAddr: 0xCB8, symBinAddr: 0x100002BC4, symSize: 0x4C }
  - { offsetInCU: 0xCD70, offset: 0xCD70, size: 0x8, addend: 0x0, symName: __ZL11check_modelv, symObjAddr: 0xD04, symBinAddr: 0x100002C10, symSize: 0x15C }
  - { offsetInCU: 0xCE2F, offset: 0xCE2F, size: 0x8, addend: 0x0, symName: __ZL11print_modelv, symObjAddr: 0xE60, symBinAddr: 0x100002D6C, symSize: 0xB8 }
  - { offsetInCU: 0xCE67, offset: 0xCE67, size: 0x8, addend: 0x0, symName: __ZL7releasev, symObjAddr: 0xF18, symBinAddr: 0x100002E24, symSize: 0x1DC }
  - { offsetInCU: 0xCED4, offset: 0xCED4, size: 0x8, addend: 0x0, symName: __ZL16print_statisticsv, symObjAddr: 0x10F4, symBinAddr: 0x100003000, symSize: 0xB0 }
  - { offsetInCU: 0xCEEF, offset: 0xCEEF, size: 0x8, addend: 0x0, symName: __ZL11parse_errorPKcz, symObjAddr: 0x11A4, symBinAddr: 0x1000030B0, symSize: 0x74 }
  - { offsetInCU: 0xCF29, offset: 0xCF29, size: 0x8, addend: 0x0, symName: __ZL10initializev, symObjAddr: 0x1218, symBinAddr: 0x100003124, symSize: 0x338 }
  - { offsetInCU: 0xCF96, offset: 0xCF96, size: 0x8, addend: 0x0, symName: __ZNSt3__16vectorIiNS_9allocatorIiEEE9push_backB8ue170006ERKi, symObjAddr: 0x1550, symBinAddr: 0x10000345C, symSize: 0x6C }
  - { offsetInCU: 0xCFCC, offset: 0xCFCC, size: 0x8, addend: 0x0, symName: __ZL10add_clauseRNSt3__16vectorIiNS_9allocatorIiEEEE, symObjAddr: 0x15BC, symBinAddr: 0x1000034C8, symSize: 0x2F0 }
  - { offsetInCU: 0xD108, offset: 0xD108, size: 0x8, addend: 0x0, symName: __ZNSt3__16vectorIiNS_9allocatorIiEEE5clearB8ue170006Ev, symObjAddr: 0x18AC, symBinAddr: 0x1000037B8, symSize: 0x44 }
  - { offsetInCU: 0xD13C, offset: 0xD13C, size: 0x8, addend: 0x0, symName: __ZNSt3__16vectorIiNS_9allocatorIiEEE9__end_capB8ue170006Ev, symObjAddr: 0x18F0, symBinAddr: 0x1000037FC, symSize: 0x28 }
  - { offsetInCU: 0xD161, offset: 0xD161, size: 0x8, addend: 0x0, symName: __ZNSt3__16vectorIiNS_9allocatorIiEEE22__construct_one_at_endB8ue170006IJRKiEEEvDpOT_, symObjAddr: 0x1918, symBinAddr: 0x100003824, symSize: 0x90 }
  - { offsetInCU: 0xD1AE, offset: 0xD1AE, size: 0x8, addend: 0x0, symName: __ZNSt3__16vectorIiNS_9allocatorIiEEE21__push_back_slow_pathIRKiEEvOT_, symObjAddr: 0x19A8, symBinAddr: 0x1000038B4, symSize: 0xD8 }
  - { offsetInCU: 0xD20B, offset: 0xD20B, size: 0x8, addend: 0x0, symName: __ZNSt3__117__compressed_pairIPiNS_9allocatorIiEEE5firstB8ue170006Ev, symObjAddr: 0x1A80, symBinAddr: 0x10000398C, symSize: 0x24 }
  - { offsetInCU: 0xD230, offset: 0xD230, size: 0x8, addend: 0x0, symName: __ZNSt3__122__compressed_pair_elemIPiLi0ELb0EE5__getB8ue170006Ev, symObjAddr: 0x1AA4, symBinAddr: 0x1000039B0, symSize: 0x14 }
  - { offsetInCU: 0xD26D, offset: 0xD26D, size: 0x8, addend: 0x0, symName: __ZNSt3__16vectorIiNS_9allocatorIiEEE21_ConstructTransactionC1B8ue170006ERS3_m, symObjAddr: 0x1AB8, symBinAddr: 0x1000039C4, symSize: 0x3C }
  - { offsetInCU: 0xD2B4, offset: 0xD2B4, size: 0x8, addend: 0x0, symName: __ZNSt3__116allocator_traitsINS_9allocatorIiEEE9constructB8ue170006IiJRKiEvEEvRS2_PT_DpOT0_, symObjAddr: 0x1AF4, symBinAddr: 0x100003A00, symSize: 0x34 }
  - { offsetInCU: 0xD30B, offset: 0xD30B, size: 0x8, addend: 0x0, symName: __ZNSt3__16vectorIiNS_9allocatorIiEEE7__allocB8ue170006Ev, symObjAddr: 0x1B28, symBinAddr: 0x100003A34, symSize: 0x28 }
  - { offsetInCU: 0xD32F, offset: 0xD32F, size: 0x8, addend: 0x0, symName: __ZNSt3__16vectorIiNS_9allocatorIiEEE21_ConstructTransactionD1B8ue170006Ev, symObjAddr: 0x1B64, symBinAddr: 0x100003A70, symSize: 0x2C }
  - { offsetInCU: 0xD358, offset: 0xD358, size: 0x8, addend: 0x0, symName: __ZNSt3__16vectorIiNS_9allocatorIiEEE21_ConstructTransactionC2B8ue170006ERS3_m, symObjAddr: 0x1B90, symBinAddr: 0x100003A9C, symSize: 0x44 }
  - { offsetInCU: 0xD39F, offset: 0xD39F, size: 0x8, addend: 0x0, symName: __ZNSt3__19allocatorIiE9constructB8ue170006IiJRKiEEEvPT_DpOT0_, symObjAddr: 0x1BD4, symBinAddr: 0x100003AE0, symSize: 0x28 }
  - { offsetInCU: 0xD3F4, offset: 0xD3F4, size: 0x8, addend: 0x0, symName: __ZNSt3__117__compressed_pairIPiNS_9allocatorIiEEE6secondB8ue170006Ev, symObjAddr: 0x1BFC, symBinAddr: 0x100003B08, symSize: 0x24 }
  - { offsetInCU: 0xD419, offset: 0xD419, size: 0x8, addend: 0x0, symName: __ZNSt3__122__compressed_pair_elemINS_9allocatorIiEELi1ELb1EE5__getB8ue170006Ev, symObjAddr: 0x1C20, symBinAddr: 0x100003B2C, symSize: 0x14 }
  - { offsetInCU: 0xD43E, offset: 0xD43E, size: 0x8, addend: 0x0, symName: __ZNSt3__16vectorIiNS_9allocatorIiEEE21_ConstructTransactionD2B8ue170006Ev, symObjAddr: 0x1C34, symBinAddr: 0x100003B40, symSize: 0x20 }
  - { offsetInCU: 0xD466, offset: 0xD466, size: 0x8, addend: 0x0, symName: __ZNKSt3__16vectorIiNS_9allocatorIiEEE11__recommendB8ue170006Em, symObjAddr: 0x1C54, symBinAddr: 0x100003B60, symSize: 0xB4 }
  - { offsetInCU: 0xD4BA, offset: 0xD4BA, size: 0x8, addend: 0x0, symName: __ZNKSt3__16vectorIiNS_9allocatorIiEEE4sizeB8ue170006Ev, symObjAddr: 0x1D08, symBinAddr: 0x100003C14, symSize: 0x28 }
  - { offsetInCU: 0xD4DF, offset: 0xD4DF, size: 0x8, addend: 0x0, symName: __ZNSt3__114__split_bufferIiRNS_9allocatorIiEEEC1EmmS3_, symObjAddr: 0x1D30, symBinAddr: 0x100003C3C, symSize: 0x44 }
  - { offsetInCU: 0xD534, offset: 0xD534, size: 0x8, addend: 0x0, symName: __ZNSt3__114__split_bufferIiRNS_9allocatorIiEEED1Ev, symObjAddr: 0x1E84, symBinAddr: 0x100003D90, symSize: 0x2C }
  - { offsetInCU: 0xD55E, offset: 0xD55E, size: 0x8, addend: 0x0, symName: __ZNKSt3__16vectorIiNS_9allocatorIiEEE8max_sizeEv, symObjAddr: 0x1EB0, symBinAddr: 0x100003DBC, symSize: 0x60 }
  - { offsetInCU: 0xD585, offset: 0xD585, size: 0x8, addend: 0x0, symName: __ZNKSt3__16vectorIiNS_9allocatorIiEEE20__throw_length_errorB8ue170006Ev, symObjAddr: 0x1F10, symBinAddr: 0x100003E1C, symSize: 0x1C }
  - { offsetInCU: 0xD5AA, offset: 0xD5AA, size: 0x8, addend: 0x0, symName: __ZNKSt3__16vectorIiNS_9allocatorIiEEE8capacityB8ue170006Ev, symObjAddr: 0x1F2C, symBinAddr: 0x100003E38, symSize: 0x40 }
  - { offsetInCU: 0xD5D9, offset: 0xD5D9, size: 0x8, addend: 0x0, symName: __ZNSt3__116allocator_traitsINS_9allocatorIiEEE8max_sizeB8ue170006IS2_vEEmRKS2_, symObjAddr: 0x1FC4, symBinAddr: 0x100003ED0, symSize: 0x24 }
  - { offsetInCU: 0xD607, offset: 0xD607, size: 0x8, addend: 0x0, symName: __ZNKSt3__16vectorIiNS_9allocatorIiEEE7__allocB8ue170006Ev, symObjAddr: 0x1FE8, symBinAddr: 0x100003EF4, symSize: 0x28 }
  - { offsetInCU: 0xD62C, offset: 0xD62C, size: 0x8, addend: 0x0, symName: __ZNSt3__114numeric_limitsIlE3maxB8ue170006Ev, symObjAddr: 0x2010, symBinAddr: 0x100003F1C, symSize: 0x14 }
  - { offsetInCU: 0xD654, offset: 0xD654, size: 0x8, addend: 0x0, symName: __ZNKSt3__16__lessIvvEclB8ue170006ImmEEbRKT_RKT0_, symObjAddr: 0x2084, symBinAddr: 0x100003F90, symSize: 0x34 }
  - { offsetInCU: 0xD6A7, offset: 0xD6A7, size: 0x8, addend: 0x0, symName: __ZNKSt3__19allocatorIiE8max_sizeB8ue170006Ev, symObjAddr: 0x20B8, symBinAddr: 0x100003FC4, symSize: 0x14 }
  - { offsetInCU: 0xD6CC, offset: 0xD6CC, size: 0x8, addend: 0x0, symName: __ZNKSt3__117__compressed_pairIPiNS_9allocatorIiEEE6secondB8ue170006Ev, symObjAddr: 0x20CC, symBinAddr: 0x100003FD8, symSize: 0x24 }
  - { offsetInCU: 0xD6F1, offset: 0xD6F1, size: 0x8, addend: 0x0, symName: __ZNKSt3__122__compressed_pair_elemINS_9allocatorIiEELi1ELb1EE5__getB8ue170006Ev, symObjAddr: 0x20F0, symBinAddr: 0x100003FFC, symSize: 0x14 }
  - { offsetInCU: 0xD716, offset: 0xD716, size: 0x8, addend: 0x0, symName: __ZNSt3__123__libcpp_numeric_limitsIlLb1EE3maxB8ue170006Ev, symObjAddr: 0x2104, symBinAddr: 0x100004010, symSize: 0x8 }
  - { offsetInCU: 0xD729, offset: 0xD729, size: 0x8, addend: 0x0, symName: __ZNSt12length_errorC1B8ue170006EPKc, symObjAddr: 0x2170, symBinAddr: 0x10000407C, symSize: 0x34 }
  - { offsetInCU: 0xD75F, offset: 0xD75F, size: 0x8, addend: 0x0, symName: __ZNSt12length_errorC2B8ue170006EPKc, symObjAddr: 0x21A4, symBinAddr: 0x1000040B0, symSize: 0x4C }
  - { offsetInCU: 0xD796, offset: 0xD796, size: 0x8, addend: 0x0, symName: __ZNKSt3__16vectorIiNS_9allocatorIiEEE9__end_capB8ue170006Ev, symObjAddr: 0x21F0, symBinAddr: 0x1000040FC, symSize: 0x28 }
  - { offsetInCU: 0xD7BB, offset: 0xD7BB, size: 0x8, addend: 0x0, symName: __ZNKSt3__117__compressed_pairIPiNS_9allocatorIiEEE5firstB8ue170006Ev, symObjAddr: 0x2218, symBinAddr: 0x100004124, symSize: 0x24 }
  - { offsetInCU: 0xD7E0, offset: 0xD7E0, size: 0x8, addend: 0x0, symName: __ZNKSt3__122__compressed_pair_elemIPiLi0ELb0EE5__getB8ue170006Ev, symObjAddr: 0x223C, symBinAddr: 0x100004148, symSize: 0x14 }
  - { offsetInCU: 0xD805, offset: 0xD805, size: 0x8, addend: 0x0, symName: __ZNSt3__114__split_bufferIiRNS_9allocatorIiEEEC2EmmS3_, symObjAddr: 0x22A4, symBinAddr: 0x1000041B0, symSize: 0xD4 }
  - { offsetInCU: 0xD87B, offset: 0xD87B, size: 0x8, addend: 0x0, symName: __ZNSt3__117__compressed_pairIPiRNS_9allocatorIiEEEC1B8ue170006IDnS4_EEOT_OT0_, symObjAddr: 0x2378, symBinAddr: 0x100004284, symSize: 0x3C }
  - { offsetInCU: 0xD8D2, offset: 0xD8D2, size: 0x8, addend: 0x0, symName: __ZNSt3__114__split_bufferIiRNS_9allocatorIiEEE7__allocB8ue170006Ev, symObjAddr: 0x23F4, symBinAddr: 0x100004300, symSize: 0x28 }
  - { offsetInCU: 0xD8F7, offset: 0xD8F7, size: 0x8, addend: 0x0, symName: __ZNSt3__114__split_bufferIiRNS_9allocatorIiEEE9__end_capB8ue170006Ev, symObjAddr: 0x241C, symBinAddr: 0x100004328, symSize: 0x28 }
  - { offsetInCU: 0xD91B, offset: 0xD91B, size: 0x8, addend: 0x0, symName: __ZNSt3__117__compressed_pairIPiRNS_9allocatorIiEEEC2B8ue170006IDnS4_EEOT_OT0_, symObjAddr: 0x2444, symBinAddr: 0x100004350, symSize: 0x48 }
  - { offsetInCU: 0xD972, offset: 0xD972, size: 0x8, addend: 0x0, symName: __ZNSt3__122__compressed_pair_elemIPiLi0ELb0EEC2B8ue170006IDnvEEOT_, symObjAddr: 0x248C, symBinAddr: 0x100004398, symSize: 0x1C }
  - { offsetInCU: 0xD9B3, offset: 0xD9B3, size: 0x8, addend: 0x0, symName: __ZNSt3__122__compressed_pair_elemIRNS_9allocatorIiEELi1ELb0EEC2B8ue170006IS3_vEEOT_, symObjAddr: 0x24A8, symBinAddr: 0x1000043B4, symSize: 0x20 }
  - { offsetInCU: 0xD9F4, offset: 0xD9F4, size: 0x8, addend: 0x0, symName: __ZNSt3__19allocatorIiE8allocateB8ue170006Em, symObjAddr: 0x24C8, symBinAddr: 0x1000043D4, symSize: 0x58 }
  - { offsetInCU: 0xDA27, offset: 0xDA27, size: 0x8, addend: 0x0, symName: __ZNSt3__117__compressed_pairIPiRNS_9allocatorIiEEE6secondB8ue170006Ev, symObjAddr: 0x2624, symBinAddr: 0x100004530, symSize: 0x28 }
  - { offsetInCU: 0xDA4C, offset: 0xDA4C, size: 0x8, addend: 0x0, symName: __ZNSt3__122__compressed_pair_elemIRNS_9allocatorIiEELi1ELb0EE5__getB8ue170006Ev, symObjAddr: 0x264C, symBinAddr: 0x100004558, symSize: 0x18 }
  - { offsetInCU: 0xDA71, offset: 0xDA71, size: 0x8, addend: 0x0, symName: __ZNSt3__117__compressed_pairIPiRNS_9allocatorIiEEE5firstB8ue170006Ev, symObjAddr: 0x2664, symBinAddr: 0x100004570, symSize: 0x24 }
  - { offsetInCU: 0xDA96, offset: 0xDA96, size: 0x8, addend: 0x0, symName: __ZNKSt3__16vectorIiNS_9allocatorIiEEE17__annotate_deleteB8ue170006Ev, symObjAddr: 0x2688, symBinAddr: 0x100004594, symSize: 0xB8 }
  - { offsetInCU: 0xDABA, offset: 0xDABA, size: 0x8, addend: 0x0, symName: __ZNSt3__116reverse_iteratorIPiEC1B8ue170006ES1_, symObjAddr: 0x27B8, symBinAddr: 0x1000046C4, symSize: 0x34 }
  - { offsetInCU: 0xDAF1, offset: 0xDAF1, size: 0x8, addend: 0x0, symName: __ZNKSt3__116reverse_iteratorIPiE4baseB8ue170006Ev, symObjAddr: 0x27EC, symBinAddr: 0x1000046F8, symSize: 0x18 }
  - { offsetInCU: 0xDB16, offset: 0xDB16, size: 0x8, addend: 0x0, symName: __ZNKSt3__16vectorIiNS_9allocatorIiEEE14__annotate_newB8ue170006Em, symObjAddr: 0x2840, symBinAddr: 0x10000474C, symSize: 0xAC }
  - { offsetInCU: 0xDB4A, offset: 0xDB4A, size: 0x8, addend: 0x0, symName: __ZNKSt3__16vectorIiNS_9allocatorIiEEE31__annotate_contiguous_containerB8ue170006EPKvS5_S5_S5_, symObjAddr: 0x28EC, symBinAddr: 0x1000047F8, symSize: 0x20 }
  - { offsetInCU: 0xDB9B, offset: 0xDB9B, size: 0x8, addend: 0x0, symName: __ZNKSt3__16vectorIiNS_9allocatorIiEEE4dataB8ue170006Ev, symObjAddr: 0x290C, symBinAddr: 0x100004818, symSize: 0x28 }
  - { offsetInCU: 0xDBE3, offset: 0xDBE3, size: 0x8, addend: 0x0, symName: __ZNKSt3__111__move_loopINS_17_ClassicAlgPolicyEEclB8ue170006INS_16reverse_iteratorIPiEES6_S6_EENS_4pairIT_T1_EES8_T0_S9_, symObjAddr: 0x2C24, symBinAddr: 0x100004B30, symSize: 0xA0 }
  - { offsetInCU: 0xDC52, offset: 0xDC52, size: 0x8, addend: 0x0, symName: __ZNSt3__18_IterOpsINS_17_ClassicAlgPolicyEE11__iter_moveB8ue170006IRNS_16reverse_iteratorIPiEEEENS_9enable_ifIXsr12is_referenceIDTdeclsr3stdE7declvalIRT_EEEEE5valueEDTclsr3stdE4movedeclsr3stdE7declvalISA_EEEEE4typeEOS9_, symObjAddr: 0x2E58, symBinAddr: 0x100004D64, symSize: 0x28 }
  - { offsetInCU: 0xDC7E, offset: 0xDC7E, size: 0x8, addend: 0x0, symName: __ZNKSt3__116reverse_iteratorIPiEdeB8ue170006Ev, symObjAddr: 0x2E80, symBinAddr: 0x100004D8C, symSize: 0x28 }
  - { offsetInCU: 0xDCB1, offset: 0xDCB1, size: 0x8, addend: 0x0, symName: __ZNSt3__116reverse_iteratorIPiEppB8ue170006Ev, symObjAddr: 0x2EA8, symBinAddr: 0x100004DB4, symSize: 0x20 }
  - { offsetInCU: 0xDCD6, offset: 0xDCD6, size: 0x8, addend: 0x0, symName: __ZNSt3__18_IterOpsINS_17_ClassicAlgPolicyEE25__validate_iter_referenceB8ue170006IRNS_16reverse_iteratorIPiEEEEvv, symObjAddr: 0x2EC8, symBinAddr: 0x100004DD4, symSize: 0x4 }
  - { offsetInCU: 0xDCF4, offset: 0xDCF4, size: 0x8, addend: 0x0, symName: __ZNSt3__118__unwrap_iter_implINS_16reverse_iteratorIPiEELb0EE8__unwrapB8ue170006ES3_, symObjAddr: 0x2ECC, symBinAddr: 0x100004DD8, symSize: 0x24 }
  - { offsetInCU: 0xDD1B, offset: 0xDD1B, size: 0x8, addend: 0x0, symName: __ZNSt3__14pairINS_16reverse_iteratorIPiEES3_EC1B8ue170006IS3_S3_LPv0EEEOT_OT0_, symObjAddr: 0x2EF0, symBinAddr: 0x100004DFC, symSize: 0x3C }
  - { offsetInCU: 0xDD78, offset: 0xDD78, size: 0x8, addend: 0x0, symName: __ZNSt3__14pairINS_16reverse_iteratorIPiEES3_EC2B8ue170006IS3_S3_LPv0EEEOT_OT0_, symObjAddr: 0x2F2C, symBinAddr: 0x100004E38, symSize: 0x34 }
  - { offsetInCU: 0xDDD5, offset: 0xDDD5, size: 0x8, addend: 0x0, symName: __ZNSt3__118__unwrap_iter_implINS_16reverse_iteratorIPiEELb0EE8__rewrapB8ue170006ES3_S3_, symObjAddr: 0x2F60, symBinAddr: 0x100004E6C, symSize: 0x2C }
  - { offsetInCU: 0xDE03, offset: 0xDE03, size: 0x8, addend: 0x0, symName: __ZNSt3__116reverse_iteratorIPiEC2B8ue170006ES1_, symObjAddr: 0x2F8C, symBinAddr: 0x100004E98, symSize: 0x28 }
  - { offsetInCU: 0xDE3A, offset: 0xDE3A, size: 0x8, addend: 0x0, symName: __ZNSt3__114__split_bufferIiRNS_9allocatorIiEEED2Ev, symObjAddr: 0x2FB4, symBinAddr: 0x100004EC0, symSize: 0x8C }
  - { offsetInCU: 0xDE65, offset: 0xDE65, size: 0x8, addend: 0x0, symName: __ZNSt3__114__split_bufferIiRNS_9allocatorIiEEE5clearB8ue170006Ev, symObjAddr: 0x3040, symBinAddr: 0x100004F4C, symSize: 0x28 }
  - { offsetInCU: 0xDE8A, offset: 0xDE8A, size: 0x8, addend: 0x0, symName: __ZNSt3__116allocator_traitsINS_9allocatorIiEEE10deallocateB8ue170006ERS2_Pim, symObjAddr: 0x3068, symBinAddr: 0x100004F74, symSize: 0x34 }
  - { offsetInCU: 0xDECC, offset: 0xDECC, size: 0x8, addend: 0x0, symName: __ZNKSt3__114__split_bufferIiRNS_9allocatorIiEEE8capacityB8ue170006Ev, symObjAddr: 0x309C, symBinAddr: 0x100004FA8, symSize: 0x40 }
  - { offsetInCU: 0xDEF1, offset: 0xDEF1, size: 0x8, addend: 0x0, symName: __ZNSt3__114__split_bufferIiRNS_9allocatorIiEEE17__destruct_at_endB8ue170006EPi, symObjAddr: 0x30DC, symBinAddr: 0x100004FE8, symSize: 0x2C }
  - { offsetInCU: 0xDF23, offset: 0xDF23, size: 0x8, addend: 0x0, symName: __ZNSt3__114__split_bufferIiRNS_9allocatorIiEEE17__destruct_at_endB8ue170006EPiNS_17integral_constantIbLb0EEE, symObjAddr: 0x3108, symBinAddr: 0x100005014, symSize: 0x80 }
  - { offsetInCU: 0xDF63, offset: 0xDF63, size: 0x8, addend: 0x0, symName: __ZNSt3__116allocator_traitsINS_9allocatorIiEEE7destroyB8ue170006IivEEvRS2_PT_, symObjAddr: 0x3188, symBinAddr: 0x100005094, symSize: 0x2C }
  - { offsetInCU: 0xDFA0, offset: 0xDFA0, size: 0x8, addend: 0x0, symName: __ZNSt3__19allocatorIiE7destroyB8ue170006EPi, symObjAddr: 0x31B4, symBinAddr: 0x1000050C0, symSize: 0x14 }
  - { offsetInCU: 0xDFD3, offset: 0xDFD3, size: 0x8, addend: 0x0, symName: __ZNSt3__19allocatorIiE10deallocateB8ue170006EPim, symObjAddr: 0x31C8, symBinAddr: 0x1000050D4, symSize: 0x40 }
  - { offsetInCU: 0xE014, offset: 0xE014, size: 0x8, addend: 0x0, symName: __ZNKSt3__114__split_bufferIiRNS_9allocatorIiEEE9__end_capB8ue170006Ev, symObjAddr: 0x3310, symBinAddr: 0x10000521C, symSize: 0x28 }
  - { offsetInCU: 0xE039, offset: 0xE039, size: 0x8, addend: 0x0, symName: __ZNKSt3__117__compressed_pairIPiRNS_9allocatorIiEEE5firstB8ue170006Ev, symObjAddr: 0x3338, symBinAddr: 0x100005244, symSize: 0x24 }
  - { offsetInCU: 0xE05E, offset: 0xE05E, size: 0x8, addend: 0x0, symName: __ZNKSt3__16vectorIP6clauseNS_9allocatorIS2_EEE4sizeB8ue170006Ev, symObjAddr: 0x335C, symBinAddr: 0x100005268, symSize: 0x28 }
  - { offsetInCU: 0xE082, offset: 0xE082, size: 0x8, addend: 0x0, symName: __ZNSt3__16vectorIiNS_9allocatorIiEEE5beginB8ue170006Ev, symObjAddr: 0x3384, symBinAddr: 0x100005290, symSize: 0x30 }
  - { offsetInCU: 0xE0A8, offset: 0xE0A8, size: 0x8, addend: 0x0, symName: __ZNSt3__16vectorIiNS_9allocatorIiEEE3endB8ue170006Ev, symObjAddr: 0x33B4, symBinAddr: 0x1000052C0, symSize: 0x30 }
  - { offsetInCU: 0xE0CF, offset: 0xE0CF, size: 0x8, addend: 0x0, symName: __ZNKSt3__111__wrap_iterIPiEdeB8ue170006Ev, symObjAddr: 0x3418, symBinAddr: 0x100005324, symSize: 0x18 }
  - { offsetInCU: 0xE0F4, offset: 0xE0F4, size: 0x8, addend: 0x0, symName: __ZNSt3__111__wrap_iterIPiEppB8ue170006Ev, symObjAddr: 0x3430, symBinAddr: 0x10000533C, symSize: 0x20 }
  - { offsetInCU: 0xE119, offset: 0xE119, size: 0x8, addend: 0x0, symName: __ZL5debugP6clausePKcz, symObjAddr: 0x3450, symBinAddr: 0x10000535C, symSize: 0x10C }
  - { offsetInCU: 0xE1AE, offset: 0xE1AE, size: 0x8, addend: 0x0, symName: __ZNSt3__16vectorIP6clauseNS_9allocatorIS2_EEE9push_backB8ue170006ERKS2_, symObjAddr: 0x355C, symBinAddr: 0x100005468, symSize: 0x6C }
  - { offsetInCU: 0xE1E4, offset: 0xE1E4, size: 0x8, addend: 0x0, symName: __ZN6clause5beginEv, symObjAddr: 0x35C8, symBinAddr: 0x1000054D4, symSize: 0x18 }
  - { offsetInCU: 0xE209, offset: 0xE209, size: 0x8, addend: 0x0, symName: __ZN6clause3endEv, symObjAddr: 0x35E0, symBinAddr: 0x1000054EC, symSize: 0x20 }
  - { offsetInCU: 0xE22E, offset: 0xE22E, size: 0x8, addend: 0x0, symName: __ZL13watch_literaliP6clause, symObjAddr: 0x3600, symBinAddr: 0x10000550C, symSize: 0x74 }
  - { offsetInCU: 0xE267, offset: 0xE267, size: 0x8, addend: 0x0, symName: __ZNSt3__16vectorIiNS_9allocatorIiEEEixB8ue170006Em, symObjAddr: 0x3674, symBinAddr: 0x100005580, symSize: 0x24 }
  - { offsetInCU: 0xE29D, offset: 0xE29D, size: 0x8, addend: 0x0, symName: __ZL6assigniP6clause, symObjAddr: 0x3698, symBinAddr: 0x1000055A4, symSize: 0x22C }
  - { offsetInCU: 0xE2E5, offset: 0xE2E5, size: 0x8, addend: 0x0, symName: __ZNSt3__16vectorIiNS_9allocatorIiEEE11__make_iterB8ue170006EPi, symObjAddr: 0x38C4, symBinAddr: 0x1000057D0, symSize: 0x30 }
  - { offsetInCU: 0xE318, offset: 0xE318, size: 0x8, addend: 0x0, symName: __ZNSt3__111__wrap_iterIPiEC1B8ue170006ES1_, symObjAddr: 0x38F4, symBinAddr: 0x100005800, symSize: 0x34 }
  - { offsetInCU: 0xE34F, offset: 0xE34F, size: 0x8, addend: 0x0, symName: __ZNSt3__111__wrap_iterIPiEC2B8ue170006ES1_, symObjAddr: 0x3928, symBinAddr: 0x100005834, symSize: 0x20 }
  - { offsetInCU: 0xE386, offset: 0xE386, size: 0x8, addend: 0x0, symName: __ZNKSt3__111__wrap_iterIPiE4baseB8ue170006Ev, symObjAddr: 0x3990, symBinAddr: 0x10000589C, symSize: 0x18 }
  - { offsetInCU: 0xE3AB, offset: 0xE3AB, size: 0x8, addend: 0x0, symName: __ZL7loggingv, symObjAddr: 0x39A8, symBinAddr: 0x1000058B4, symSize: 0x1C }
  - { offsetInCU: 0xE3C9, offset: 0xE3C9, size: 0x8, addend: 0x0, symName: __ZL12debug_prefixv, symObjAddr: 0x39C4, symBinAddr: 0x1000058D0, symSize: 0x38 }
  - { offsetInCU: 0xE3E2, offset: 0xE3E2, size: 0x8, addend: 0x0, symName: __ZL5debugi, symObjAddr: 0x39FC, symBinAddr: 0x100005908, symSize: 0x134 }
  - { offsetInCU: 0xE42B, offset: 0xE42B, size: 0x8, addend: 0x0, symName: __ZL12debug_suffixv, symObjAddr: 0x3B30, symBinAddr: 0x100005A3C, symSize: 0x3C }
  - { offsetInCU: 0xE444, offset: 0xE444, size: 0x8, addend: 0x0, symName: __ZL12debug_stringv, symObjAddr: 0x3B6C, symBinAddr: 0x100005A78, symSize: 0x50 }
  - { offsetInCU: 0xE471, offset: 0xE471, size: 0x8, addend: 0x0, symName: __ZNSt3__16vectorIP6clauseNS_9allocatorIS2_EEE9__end_capB8ue170006Ev, symObjAddr: 0x3BBC, symBinAddr: 0x100005AC8, symSize: 0x28 }
  - { offsetInCU: 0xE496, offset: 0xE496, size: 0x8, addend: 0x0, symName: __ZNSt3__16vectorIP6clauseNS_9allocatorIS2_EEE22__construct_one_at_endB8ue170006IJRKS2_EEEvDpOT_, symObjAddr: 0x3BE4, symBinAddr: 0x100005AF0, symSize: 0x90 }
  - { offsetInCU: 0xE4E3, offset: 0xE4E3, size: 0x8, addend: 0x0, symName: __ZNSt3__16vectorIP6clauseNS_9allocatorIS2_EEE21__push_back_slow_pathIRKS2_EEvOT_, symObjAddr: 0x3C74, symBinAddr: 0x100005B80, symSize: 0xD8 }
  - { offsetInCU: 0xE540, offset: 0xE540, size: 0x8, addend: 0x0, symName: __ZNSt3__117__compressed_pairIPP6clauseNS_9allocatorIS2_EEE5firstB8ue170006Ev, symObjAddr: 0x3D4C, symBinAddr: 0x100005C58, symSize: 0x24 }
  - { offsetInCU: 0xE565, offset: 0xE565, size: 0x8, addend: 0x0, symName: __ZNSt3__122__compressed_pair_elemIPP6clauseLi0ELb0EE5__getB8ue170006Ev, symObjAddr: 0x3D70, symBinAddr: 0x100005C7C, symSize: 0x14 }
  - { offsetInCU: 0xE5A2, offset: 0xE5A2, size: 0x8, addend: 0x0, symName: __ZNSt3__16vectorIP6clauseNS_9allocatorIS2_EEE21_ConstructTransactionC1B8ue170006ERS5_m, symObjAddr: 0x3D84, symBinAddr: 0x100005C90, symSize: 0x3C }
  - { offsetInCU: 0xE5E9, offset: 0xE5E9, size: 0x8, addend: 0x0, symName: __ZNSt3__116allocator_traitsINS_9allocatorIP6clauseEEE9constructB8ue170006IS3_JRKS3_EvEEvRS4_PT_DpOT0_, symObjAddr: 0x3DC0, symBinAddr: 0x100005CCC, symSize: 0x34 }
  - { offsetInCU: 0xE640, offset: 0xE640, size: 0x8, addend: 0x0, symName: __ZNSt3__16vectorIP6clauseNS_9allocatorIS2_EEE7__allocB8ue170006Ev, symObjAddr: 0x3DF4, symBinAddr: 0x100005D00, symSize: 0x28 }
  - { offsetInCU: 0xE664, offset: 0xE664, size: 0x8, addend: 0x0, symName: __ZNSt3__16vectorIP6clauseNS_9allocatorIS2_EEE21_ConstructTransactionD1B8ue170006Ev, symObjAddr: 0x3E30, symBinAddr: 0x100005D3C, symSize: 0x2C }
  - { offsetInCU: 0xE68D, offset: 0xE68D, size: 0x8, addend: 0x0, symName: __ZNSt3__16vectorIP6clauseNS_9allocatorIS2_EEE21_ConstructTransactionC2B8ue170006ERS5_m, symObjAddr: 0x3E5C, symBinAddr: 0x100005D68, symSize: 0x44 }
  - { offsetInCU: 0xE6D4, offset: 0xE6D4, size: 0x8, addend: 0x0, symName: __ZNSt3__19allocatorIP6clauseE9constructB8ue170006IS2_JRKS2_EEEvPT_DpOT0_, symObjAddr: 0x3EA0, symBinAddr: 0x100005DAC, symSize: 0x28 }
  - { offsetInCU: 0xE729, offset: 0xE729, size: 0x8, addend: 0x0, symName: __ZNSt3__117__compressed_pairIPP6clauseNS_9allocatorIS2_EEE6secondB8ue170006Ev, symObjAddr: 0x3EC8, symBinAddr: 0x100005DD4, symSize: 0x24 }
  - { offsetInCU: 0xE74E, offset: 0xE74E, size: 0x8, addend: 0x0, symName: __ZNSt3__122__compressed_pair_elemINS_9allocatorIP6clauseEELi1ELb1EE5__getB8ue170006Ev, symObjAddr: 0x3EEC, symBinAddr: 0x100005DF8, symSize: 0x14 }
  - { offsetInCU: 0xE773, offset: 0xE773, size: 0x8, addend: 0x0, symName: __ZNSt3__16vectorIP6clauseNS_9allocatorIS2_EEE21_ConstructTransactionD2B8ue170006Ev, symObjAddr: 0x3F00, symBinAddr: 0x100005E0C, symSize: 0x20 }
  - { offsetInCU: 0xE79B, offset: 0xE79B, size: 0x8, addend: 0x0, symName: __ZNKSt3__16vectorIP6clauseNS_9allocatorIS2_EEE11__recommendB8ue170006Em, symObjAddr: 0x3F20, symBinAddr: 0x100005E2C, symSize: 0xB4 }
  - { offsetInCU: 0xE7EF, offset: 0xE7EF, size: 0x8, addend: 0x0, symName: __ZNSt3__114__split_bufferIP6clauseRNS_9allocatorIS2_EEEC1EmmS5_, symObjAddr: 0x3FD4, symBinAddr: 0x100005EE0, symSize: 0x44 }
  - { offsetInCU: 0xE844, offset: 0xE844, size: 0x8, addend: 0x0, symName: __ZNSt3__114__split_bufferIP6clauseRNS_9allocatorIS2_EEED1Ev, symObjAddr: 0x4128, symBinAddr: 0x100006034, symSize: 0x2C }
  - { offsetInCU: 0xE86E, offset: 0xE86E, size: 0x8, addend: 0x0, symName: __ZNKSt3__16vectorIP6clauseNS_9allocatorIS2_EEE8max_sizeEv, symObjAddr: 0x4154, symBinAddr: 0x100006060, symSize: 0x60 }
  - { offsetInCU: 0xE895, offset: 0xE895, size: 0x8, addend: 0x0, symName: __ZNKSt3__16vectorIP6clauseNS_9allocatorIS2_EEE20__throw_length_errorB8ue170006Ev, symObjAddr: 0x41B4, symBinAddr: 0x1000060C0, symSize: 0x1C }
  - { offsetInCU: 0xE8BA, offset: 0xE8BA, size: 0x8, addend: 0x0, symName: __ZNKSt3__16vectorIP6clauseNS_9allocatorIS2_EEE8capacityB8ue170006Ev, symObjAddr: 0x41D0, symBinAddr: 0x1000060DC, symSize: 0x40 }
  - { offsetInCU: 0xE8E9, offset: 0xE8E9, size: 0x8, addend: 0x0, symName: __ZNSt3__116allocator_traitsINS_9allocatorIP6clauseEEE8max_sizeB8ue170006IS4_vEEmRKS4_, symObjAddr: 0x4210, symBinAddr: 0x10000611C, symSize: 0x24 }
  - { offsetInCU: 0xE917, offset: 0xE917, size: 0x8, addend: 0x0, symName: __ZNKSt3__16vectorIP6clauseNS_9allocatorIS2_EEE7__allocB8ue170006Ev, symObjAddr: 0x4234, symBinAddr: 0x100006140, symSize: 0x28 }
  - { offsetInCU: 0xE93C, offset: 0xE93C, size: 0x8, addend: 0x0, symName: __ZNKSt3__19allocatorIP6clauseE8max_sizeB8ue170006Ev, symObjAddr: 0x425C, symBinAddr: 0x100006168, symSize: 0x14 }
  - { offsetInCU: 0xE961, offset: 0xE961, size: 0x8, addend: 0x0, symName: __ZNKSt3__117__compressed_pairIPP6clauseNS_9allocatorIS2_EEE6secondB8ue170006Ev, symObjAddr: 0x4270, symBinAddr: 0x10000617C, symSize: 0x24 }
  - { offsetInCU: 0xE986, offset: 0xE986, size: 0x8, addend: 0x0, symName: __ZNKSt3__122__compressed_pair_elemINS_9allocatorIP6clauseEELi1ELb1EE5__getB8ue170006Ev, symObjAddr: 0x4294, symBinAddr: 0x1000061A0, symSize: 0x14 }
  - { offsetInCU: 0xE9AB, offset: 0xE9AB, size: 0x8, addend: 0x0, symName: __ZNKSt3__16vectorIP6clauseNS_9allocatorIS2_EEE9__end_capB8ue170006Ev, symObjAddr: 0x42A8, symBinAddr: 0x1000061B4, symSize: 0x28 }
  - { offsetInCU: 0xE9D0, offset: 0xE9D0, size: 0x8, addend: 0x0, symName: __ZNKSt3__117__compressed_pairIPP6clauseNS_9allocatorIS2_EEE5firstB8ue170006Ev, symObjAddr: 0x42D0, symBinAddr: 0x1000061DC, symSize: 0x24 }
  - { offsetInCU: 0xE9F5, offset: 0xE9F5, size: 0x8, addend: 0x0, symName: __ZNKSt3__122__compressed_pair_elemIPP6clauseLi0ELb0EE5__getB8ue170006Ev, symObjAddr: 0x42F4, symBinAddr: 0x100006200, symSize: 0x14 }
  - { offsetInCU: 0xEA1A, offset: 0xEA1A, size: 0x8, addend: 0x0, symName: __ZNSt3__114__split_bufferIP6clauseRNS_9allocatorIS2_EEEC2EmmS5_, symObjAddr: 0x4308, symBinAddr: 0x100006214, symSize: 0xD4 }
  - { offsetInCU: 0xEA8B, offset: 0xEA8B, size: 0x8, addend: 0x0, symName: __ZNSt3__117__compressed_pairIPP6clauseRNS_9allocatorIS2_EEEC1B8ue170006IDnS6_EEOT_OT0_, symObjAddr: 0x43DC, symBinAddr: 0x1000062E8, symSize: 0x3C }
  - { offsetInCU: 0xEAE2, offset: 0xEAE2, size: 0x8, addend: 0x0, symName: __ZNSt3__114__split_bufferIP6clauseRNS_9allocatorIS2_EEE7__allocB8ue170006Ev, symObjAddr: 0x4458, symBinAddr: 0x100006364, symSize: 0x28 }
  - { offsetInCU: 0xEB07, offset: 0xEB07, size: 0x8, addend: 0x0, symName: __ZNSt3__114__split_bufferIP6clauseRNS_9allocatorIS2_EEE9__end_capB8ue170006Ev, symObjAddr: 0x4480, symBinAddr: 0x10000638C, symSize: 0x28 }
  - { offsetInCU: 0xEB2B, offset: 0xEB2B, size: 0x8, addend: 0x0, symName: __ZNSt3__117__compressed_pairIPP6clauseRNS_9allocatorIS2_EEEC2B8ue170006IDnS6_EEOT_OT0_, symObjAddr: 0x44A8, symBinAddr: 0x1000063B4, symSize: 0x48 }
  - { offsetInCU: 0xEB82, offset: 0xEB82, size: 0x8, addend: 0x0, symName: __ZNSt3__122__compressed_pair_elemIPP6clauseLi0ELb0EEC2B8ue170006IDnvEEOT_, symObjAddr: 0x44F0, symBinAddr: 0x1000063FC, symSize: 0x1C }
  - { offsetInCU: 0xEBC3, offset: 0xEBC3, size: 0x8, addend: 0x0, symName: __ZNSt3__122__compressed_pair_elemIRNS_9allocatorIP6clauseEELi1ELb0EEC2B8ue170006IS5_vEEOT_, symObjAddr: 0x450C, symBinAddr: 0x100006418, symSize: 0x20 }
  - { offsetInCU: 0xEC04, offset: 0xEC04, size: 0x8, addend: 0x0, symName: __ZNSt3__19allocatorIP6clauseE8allocateB8ue170006Em, symObjAddr: 0x452C, symBinAddr: 0x100006438, symSize: 0x58 }
  - { offsetInCU: 0xEC37, offset: 0xEC37, size: 0x8, addend: 0x0, symName: __ZNSt3__117__compressed_pairIPP6clauseRNS_9allocatorIS2_EEE6secondB8ue170006Ev, symObjAddr: 0x4584, symBinAddr: 0x100006490, symSize: 0x28 }
  - { offsetInCU: 0xEC5C, offset: 0xEC5C, size: 0x8, addend: 0x0, symName: __ZNSt3__122__compressed_pair_elemIRNS_9allocatorIP6clauseEELi1ELb0EE5__getB8ue170006Ev, symObjAddr: 0x45AC, symBinAddr: 0x1000064B8, symSize: 0x18 }
  - { offsetInCU: 0xEC81, offset: 0xEC81, size: 0x8, addend: 0x0, symName: __ZNSt3__117__compressed_pairIPP6clauseRNS_9allocatorIS2_EEE5firstB8ue170006Ev, symObjAddr: 0x45C4, symBinAddr: 0x1000064D0, symSize: 0x24 }
  - { offsetInCU: 0xECA6, offset: 0xECA6, size: 0x8, addend: 0x0, symName: __ZNKSt3__16vectorIP6clauseNS_9allocatorIS2_EEE17__annotate_deleteB8ue170006Ev, symObjAddr: 0x45E8, symBinAddr: 0x1000064F4, symSize: 0xB8 }
  - { offsetInCU: 0xECCA, offset: 0xECCA, size: 0x8, addend: 0x0, symName: __ZNSt3__116reverse_iteratorIPP6clauseEC1B8ue170006ES3_, symObjAddr: 0x4718, symBinAddr: 0x100006624, symSize: 0x34 }
  - { offsetInCU: 0xED01, offset: 0xED01, size: 0x8, addend: 0x0, symName: __ZNKSt3__116reverse_iteratorIPP6clauseE4baseB8ue170006Ev, symObjAddr: 0x474C, symBinAddr: 0x100006658, symSize: 0x18 }
  - { offsetInCU: 0xED26, offset: 0xED26, size: 0x8, addend: 0x0, symName: __ZNKSt3__16vectorIP6clauseNS_9allocatorIS2_EEE14__annotate_newB8ue170006Em, symObjAddr: 0x47A0, symBinAddr: 0x1000066AC, symSize: 0xAC }
  - { offsetInCU: 0xED5A, offset: 0xED5A, size: 0x8, addend: 0x0, symName: __ZNKSt3__16vectorIP6clauseNS_9allocatorIS2_EEE31__annotate_contiguous_containerB8ue170006EPKvS7_S7_S7_, symObjAddr: 0x484C, symBinAddr: 0x100006758, symSize: 0x20 }
  - { offsetInCU: 0xEDAB, offset: 0xEDAB, size: 0x8, addend: 0x0, symName: __ZNKSt3__16vectorIP6clauseNS_9allocatorIS2_EEE4dataB8ue170006Ev, symObjAddr: 0x486C, symBinAddr: 0x100006778, symSize: 0x28 }
  - { offsetInCU: 0xEDE9, offset: 0xEDE9, size: 0x8, addend: 0x0, symName: __ZNKSt3__111__move_loopINS_17_ClassicAlgPolicyEEclB8ue170006INS_16reverse_iteratorIPP6clauseEES8_S8_EENS_4pairIT_T1_EESA_T0_SB_, symObjAddr: 0x4B84, symBinAddr: 0x100006A90, symSize: 0xA0 }
  - { offsetInCU: 0xEE58, offset: 0xEE58, size: 0x8, addend: 0x0, symName: __ZNSt3__18_IterOpsINS_17_ClassicAlgPolicyEE11__iter_moveB8ue170006IRNS_16reverse_iteratorIPP6clauseEEEENS_9enable_ifIXsr12is_referenceIDTdeclsr3stdE7declvalIRT_EEEEE5valueEDTclsr3stdE4movedeclsr3stdE7declvalISC_EEEEE4typeEOSB_, symObjAddr: 0x4DB8, symBinAddr: 0x100006CC4, symSize: 0x28 }
  - { offsetInCU: 0xEE84, offset: 0xEE84, size: 0x8, addend: 0x0, symName: __ZNKSt3__116reverse_iteratorIPP6clauseEdeB8ue170006Ev, symObjAddr: 0x4DE0, symBinAddr: 0x100006CEC, symSize: 0x28 }
  - { offsetInCU: 0xEEB7, offset: 0xEEB7, size: 0x8, addend: 0x0, symName: __ZNSt3__116reverse_iteratorIPP6clauseEppB8ue170006Ev, symObjAddr: 0x4E08, symBinAddr: 0x100006D14, symSize: 0x20 }
  - { offsetInCU: 0xEEDC, offset: 0xEEDC, size: 0x8, addend: 0x0, symName: __ZNSt3__18_IterOpsINS_17_ClassicAlgPolicyEE25__validate_iter_referenceB8ue170006IRNS_16reverse_iteratorIPP6clauseEEEEvv, symObjAddr: 0x4E28, symBinAddr: 0x100006D34, symSize: 0x4 }
  - { offsetInCU: 0xEEFA, offset: 0xEEFA, size: 0x8, addend: 0x0, symName: __ZNSt3__118__unwrap_iter_implINS_16reverse_iteratorIPP6clauseEELb0EE8__unwrapB8ue170006ES5_, symObjAddr: 0x4E2C, symBinAddr: 0x100006D38, symSize: 0x24 }
  - { offsetInCU: 0xEF21, offset: 0xEF21, size: 0x8, addend: 0x0, symName: __ZNSt3__14pairINS_16reverse_iteratorIPP6clauseEES5_EC1B8ue170006IS5_S5_LPv0EEEOT_OT0_, symObjAddr: 0x4E50, symBinAddr: 0x100006D5C, symSize: 0x3C }
  - { offsetInCU: 0xEF7E, offset: 0xEF7E, size: 0x8, addend: 0x0, symName: __ZNSt3__14pairINS_16reverse_iteratorIPP6clauseEES5_EC2B8ue170006IS5_S5_LPv0EEEOT_OT0_, symObjAddr: 0x4E8C, symBinAddr: 0x100006D98, symSize: 0x34 }
  - { offsetInCU: 0xEFDB, offset: 0xEFDB, size: 0x8, addend: 0x0, symName: __ZNSt3__118__unwrap_iter_implINS_16reverse_iteratorIPP6clauseEELb0EE8__rewrapB8ue170006ES5_S5_, symObjAddr: 0x4EC0, symBinAddr: 0x100006DCC, symSize: 0x2C }
  - { offsetInCU: 0xF009, offset: 0xF009, size: 0x8, addend: 0x0, symName: __ZNSt3__116reverse_iteratorIPP6clauseEC2B8ue170006ES3_, symObjAddr: 0x4EEC, symBinAddr: 0x100006DF8, symSize: 0x28 }
  - { offsetInCU: 0xF040, offset: 0xF040, size: 0x8, addend: 0x0, symName: __ZNSt3__114__split_bufferIP6clauseRNS_9allocatorIS2_EEED2Ev, symObjAddr: 0x4F14, symBinAddr: 0x100006E20, symSize: 0x8C }
  - { offsetInCU: 0xF06B, offset: 0xF06B, size: 0x8, addend: 0x0, symName: __ZNSt3__114__split_bufferIP6clauseRNS_9allocatorIS2_EEE5clearB8ue170006Ev, symObjAddr: 0x4FA0, symBinAddr: 0x100006EAC, symSize: 0x28 }
  - { offsetInCU: 0xF090, offset: 0xF090, size: 0x8, addend: 0x0, symName: __ZNSt3__116allocator_traitsINS_9allocatorIP6clauseEEE10deallocateB8ue170006ERS4_PS3_m, symObjAddr: 0x4FC8, symBinAddr: 0x100006ED4, symSize: 0x34 }
  - { offsetInCU: 0xF0D2, offset: 0xF0D2, size: 0x8, addend: 0x0, symName: __ZNKSt3__114__split_bufferIP6clauseRNS_9allocatorIS2_EEE8capacityB8ue170006Ev, symObjAddr: 0x4FFC, symBinAddr: 0x100006F08, symSize: 0x40 }
  - { offsetInCU: 0xF0F7, offset: 0xF0F7, size: 0x8, addend: 0x0, symName: __ZNSt3__114__split_bufferIP6clauseRNS_9allocatorIS2_EEE17__destruct_at_endB8ue170006EPS2_, symObjAddr: 0x503C, symBinAddr: 0x100006F48, symSize: 0x2C }
  - { offsetInCU: 0xF129, offset: 0xF129, size: 0x8, addend: 0x0, symName: __ZNSt3__114__split_bufferIP6clauseRNS_9allocatorIS2_EEE17__destruct_at_endB8ue170006EPS2_NS_17integral_constantIbLb0EEE, symObjAddr: 0x5068, symBinAddr: 0x100006F74, symSize: 0x80 }
  - { offsetInCU: 0xF169, offset: 0xF169, size: 0x8, addend: 0x0, symName: __ZNSt3__116allocator_traitsINS_9allocatorIP6clauseEEE7destroyB8ue170006IS3_vEEvRS4_PT_, symObjAddr: 0x50E8, symBinAddr: 0x100006FF4, symSize: 0x2C }
  - { offsetInCU: 0xF1A6, offset: 0xF1A6, size: 0x8, addend: 0x0, symName: __ZNSt3__19allocatorIP6clauseE7destroyB8ue170006EPS2_, symObjAddr: 0x5114, symBinAddr: 0x100007020, symSize: 0x14 }
  - { offsetInCU: 0xF1D9, offset: 0xF1D9, size: 0x8, addend: 0x0, symName: __ZNSt3__19allocatorIP6clauseE10deallocateB8ue170006EPS2_m, symObjAddr: 0x5128, symBinAddr: 0x100007034, symSize: 0x40 }
  - { offsetInCU: 0xF21A, offset: 0xF21A, size: 0x8, addend: 0x0, symName: __ZNKSt3__114__split_bufferIP6clauseRNS_9allocatorIS2_EEE9__end_capB8ue170006Ev, symObjAddr: 0x5168, symBinAddr: 0x100007074, symSize: 0x28 }
  - { offsetInCU: 0xF23F, offset: 0xF23F, size: 0x8, addend: 0x0, symName: __ZNKSt3__117__compressed_pairIPP6clauseRNS_9allocatorIS2_EEE5firstB8ue170006Ev, symObjAddr: 0x5190, symBinAddr: 0x10000709C, symSize: 0x24 }
  - { offsetInCU: 0xF264, offset: 0xF264, size: 0x8, addend: 0x0, symName: __ZL5debugPKcz, symObjAddr: 0x51B4, symBinAddr: 0x1000070C0, symSize: 0x50 }
  - { offsetInCU: 0xF29B, offset: 0xF29B, size: 0x8, addend: 0x0, symName: __ZNSt3__16vectorIiNS_9allocatorIiEEE7__clearB8ue170006Ev, symObjAddr: 0x5204, symBinAddr: 0x100007110, symSize: 0x28 }
  - { offsetInCU: 0xF2C0, offset: 0xF2C0, size: 0x8, addend: 0x0, symName: __ZNKSt3__16vectorIiNS_9allocatorIiEEE17__annotate_shrinkB8ue170006Em, symObjAddr: 0x522C, symBinAddr: 0x100007138, symSize: 0xB4 }
  - { offsetInCU: 0xF2F4, offset: 0xF2F4, size: 0x8, addend: 0x0, symName: __ZNSt3__16vectorIiNS_9allocatorIiEEE22__base_destruct_at_endB8ue170006EPi, symObjAddr: 0x52E0, symBinAddr: 0x1000071EC, symSize: 0x8C }
  - { offsetInCU: 0xF337, offset: 0xF337, size: 0x8, addend: 0x0, symName: __ZL7verbosePKcz, symObjAddr: 0x536C, symBinAddr: 0x100007278, symSize: 0x90 }
  - { offsetInCU: 0xF36E, offset: 0xF36E, size: 0x8, addend: 0x0, symName: __ZL12process_timev, symObjAddr: 0x53FC, symBinAddr: 0x100007308, symSize: 0xA0 }
  - { offsetInCU: 0xF3AC, offset: 0xF3AC, size: 0x8, addend: 0x0, symName: __ZL4cdclv, symObjAddr: 0x549C, symBinAddr: 0x1000073A8, symSize: 0xCC }
  - { offsetInCU: 0xF3F8, offset: 0xF3F8, size: 0x8, addend: 0x0, symName: __ZL9propagatev, symObjAddr: 0x5568, symBinAddr: 0x100007474, symSize: 0x360 }
  - { offsetInCU: 0xF546, offset: 0xF546, size: 0x8, addend: 0x0, symName: __ZL17backjump_and_flipP6clause, symObjAddr: 0x58C8, symBinAddr: 0x1000077D4, symSize: 0x43C }
  - { offsetInCU: 0xF6DE, offset: 0xF6DE, size: 0x8, addend: 0x0, symName: __ZL6decidev, symObjAddr: 0x5D04, symBinAddr: 0x100007C10, symSize: 0x104 }
  - { offsetInCU: 0xF70C, offset: 0xF70C, size: 0x8, addend: 0x0, symName: __ZNSt3__16vectorIP6clauseNS_9allocatorIS2_EEE5beginB8ue170006Ev, symObjAddr: 0x5E08, symBinAddr: 0x100007D14, symSize: 0x30 }
  - { offsetInCU: 0xF732, offset: 0xF732, size: 0x8, addend: 0x0, symName: __ZNSt3__16vectorIP6clauseNS_9allocatorIS2_EEE3endB8ue170006Ev, symObjAddr: 0x5E38, symBinAddr: 0x100007D44, symSize: 0x30 }
  - { offsetInCU: 0xF759, offset: 0xF759, size: 0x8, addend: 0x0, symName: __ZNKSt3__111__wrap_iterIPP6clauseEdeB8ue170006Ev, symObjAddr: 0x5E9C, symBinAddr: 0x100007DA8, symSize: 0x18 }
  - { offsetInCU: 0xF77E, offset: 0xF77E, size: 0x8, addend: 0x0, symName: __ZNSt3__111__wrap_iterIPP6clauseEppB8ue170006Ev, symObjAddr: 0x5EB4, symBinAddr: 0x100007DC0, symSize: 0x20 }
  - { offsetInCU: 0xF7A3, offset: 0xF7A3, size: 0x8, addend: 0x0, symName: __ZL9falsifiedP6clause, symObjAddr: 0x5ED4, symBinAddr: 0x100007DE0, symSize: 0xC8 }
  - { offsetInCU: 0xF824, offset: 0xF824, size: 0x8, addend: 0x0, symName: __ZL12check_countsP6clause, symObjAddr: 0x5F9C, symBinAddr: 0x100007EA8, symSize: 0x228 }
  - { offsetInCU: 0xF903, offset: 0xF903, size: 0x8, addend: 0x0, symName: __ZNSt3__16vectorIP6clauseNS_9allocatorIS2_EEE11__make_iterB8ue170006EPS2_, symObjAddr: 0x61C4, symBinAddr: 0x1000080D0, symSize: 0x30 }
  - { offsetInCU: 0xF936, offset: 0xF936, size: 0x8, addend: 0x0, symName: __ZNSt3__111__wrap_iterIPP6clauseEC1B8ue170006ES3_, symObjAddr: 0x61F4, symBinAddr: 0x100008100, symSize: 0x34 }
  - { offsetInCU: 0xF96D, offset: 0xF96D, size: 0x8, addend: 0x0, symName: __ZNSt3__111__wrap_iterIPP6clauseEC2B8ue170006ES3_, symObjAddr: 0x6228, symBinAddr: 0x100008134, symSize: 0x20 }
  - { offsetInCU: 0xF9A4, offset: 0xF9A4, size: 0x8, addend: 0x0, symName: __ZNKSt3__111__wrap_iterIPP6clauseE4baseB8ue170006Ev, symObjAddr: 0x6290, symBinAddr: 0x10000819C, symSize: 0x18 }
  - { offsetInCU: 0xF9C9, offset: 0xF9C9, size: 0x8, addend: 0x0, symName: __ZL16process_conflictP6clauseRNSt3__16vectorIiNS1_9allocatorIiEEEERiS6_, symObjAddr: 0x62A8, symBinAddr: 0x1000081B4, symSize: 0x148 }
  - { offsetInCU: 0xFA8F, offset: 0xFA8F, size: 0x8, addend: 0x0, symName: __ZNSt3__16vectorIiNS_9allocatorIiEEE9push_backB8ue170006EOi, symObjAddr: 0x63F0, symBinAddr: 0x1000082FC, symSize: 0x6C }
  - { offsetInCU: 0xFAC5, offset: 0xFAC5, size: 0x8, addend: 0x0, symName: __ZL8backjumpj, symObjAddr: 0x645C, symBinAddr: 0x100008368, symSize: 0x22C }
  - { offsetInCU: 0xFB38, offset: 0xFB38, size: 0x8, addend: 0x0, symName: __ZNSt3__16vectorIiNS_9allocatorIiEEE22__construct_one_at_endB8ue170006IJiEEEvDpOT_, symObjAddr: 0x6688, symBinAddr: 0x100008594, symSize: 0x90 }
  - { offsetInCU: 0xFB85, offset: 0xFB85, size: 0x8, addend: 0x0, symName: __ZNSt3__16vectorIiNS_9allocatorIiEEE21__push_back_slow_pathIiEEvOT_, symObjAddr: 0x6718, symBinAddr: 0x100008624, symSize: 0xD8 }
  - { offsetInCU: 0xFBE2, offset: 0xFBE2, size: 0x8, addend: 0x0, symName: __ZNSt3__116allocator_traitsINS_9allocatorIiEEE9constructB8ue170006IiJiEvEEvRS2_PT_DpOT0_, symObjAddr: 0x67F0, symBinAddr: 0x1000086FC, symSize: 0x34 }
  - { offsetInCU: 0xFC39, offset: 0xFC39, size: 0x8, addend: 0x0, symName: __ZNSt3__19allocatorIiE9constructB8ue170006IiJiEEEvPT_DpOT0_, symObjAddr: 0x6824, symBinAddr: 0x100008730, symSize: 0x28 }
  - { offsetInCU: 0xFC8E, offset: 0xFC8E, size: 0x8, addend: 0x0, symName: __ZNKSt3__16vectorIjNS_9allocatorIjEEE4sizeB8ue170006Ev, symObjAddr: 0x684C, symBinAddr: 0x100008758, symSize: 0x28 }
  - { offsetInCU: 0xFCB3, offset: 0xFCB3, size: 0x8, addend: 0x0, symName: __ZNSt3__16vectorIjNS_9allocatorIjEEE4backB8ue170006Ev, symObjAddr: 0x6874, symBinAddr: 0x100008780, symSize: 0x1C }
  - { offsetInCU: 0xFCD7, offset: 0xFCD7, size: 0x8, addend: 0x0, symName: __ZNSt3__16vectorIjNS_9allocatorIjEEE8pop_backEv, symObjAddr: 0x6890, symBinAddr: 0x10000879C, symSize: 0x2C }
  - { offsetInCU: 0xFCFE, offset: 0xFCFE, size: 0x8, addend: 0x0, symName: __ZNSt3__16vectorIiNS_9allocatorIiEEE4backB8ue170006Ev, symObjAddr: 0x68BC, symBinAddr: 0x1000087C8, symSize: 0x1C }
  - { offsetInCU: 0xFD22, offset: 0xFD22, size: 0x8, addend: 0x0, symName: __ZNSt3__16vectorIiNS_9allocatorIiEEE8pop_backEv, symObjAddr: 0x68D8, symBinAddr: 0x1000087E4, symSize: 0x2C }
  - { offsetInCU: 0xFD49, offset: 0xFD49, size: 0x8, addend: 0x0, symName: __ZL8unassignib, symObjAddr: 0x6904, symBinAddr: 0x100008810, symSize: 0x190 }
  - { offsetInCU: 0xFDD4, offset: 0xFDD4, size: 0x8, addend: 0x0, symName: __ZNSt3__16vectorIjNS_9allocatorIjEEE17__destruct_at_endB8ue170006EPj, symObjAddr: 0x6A94, symBinAddr: 0x1000089A0, symSize: 0x4C }
  - { offsetInCU: 0xFE17, offset: 0xFE17, size: 0x8, addend: 0x0, symName: __ZNSt3__16vectorIjNS_9allocatorIjEEE22__base_destruct_at_endB8ue170006EPj, symObjAddr: 0x6AE0, symBinAddr: 0x1000089EC, symSize: 0x8C }
  - { offsetInCU: 0xFE5A, offset: 0xFE5A, size: 0x8, addend: 0x0, symName: __ZNKSt3__16vectorIjNS_9allocatorIjEEE17__annotate_shrinkB8ue170006Em, symObjAddr: 0x6B6C, symBinAddr: 0x100008A78, symSize: 0xB4 }
  - { offsetInCU: 0xFE8E, offset: 0xFE8E, size: 0x8, addend: 0x0, symName: __ZNSt3__116allocator_traitsINS_9allocatorIjEEE7destroyB8ue170006IjvEEvRS2_PT_, symObjAddr: 0x6C20, symBinAddr: 0x100008B2C, symSize: 0x2C }
  - { offsetInCU: 0xFECB, offset: 0xFECB, size: 0x8, addend: 0x0, symName: __ZNSt3__16vectorIjNS_9allocatorIjEEE7__allocB8ue170006Ev, symObjAddr: 0x6C4C, symBinAddr: 0x100008B58, symSize: 0x28 }
  - { offsetInCU: 0xFEF0, offset: 0xFEF0, size: 0x8, addend: 0x0, symName: __ZNSt3__19allocatorIjE7destroyB8ue170006EPj, symObjAddr: 0x6C88, symBinAddr: 0x100008B94, symSize: 0x14 }
  - { offsetInCU: 0xFF23, offset: 0xFF23, size: 0x8, addend: 0x0, symName: __ZNSt3__117__compressed_pairIPjNS_9allocatorIjEEE6secondB8ue170006Ev, symObjAddr: 0x6C9C, symBinAddr: 0x100008BA8, symSize: 0x24 }
  - { offsetInCU: 0xFF48, offset: 0xFF48, size: 0x8, addend: 0x0, symName: __ZNSt3__122__compressed_pair_elemINS_9allocatorIjEELi1ELb1EE5__getB8ue170006Ev, symObjAddr: 0x6CC0, symBinAddr: 0x100008BCC, symSize: 0x14 }
  - { offsetInCU: 0xFF6D, offset: 0xFF6D, size: 0x8, addend: 0x0, symName: __ZNKSt3__16vectorIjNS_9allocatorIjEEE31__annotate_contiguous_containerB8ue170006EPKvS5_S5_S5_, symObjAddr: 0x6CD4, symBinAddr: 0x100008BE0, symSize: 0x20 }
  - { offsetInCU: 0xFFBE, offset: 0xFFBE, size: 0x8, addend: 0x0, symName: __ZNKSt3__16vectorIjNS_9allocatorIjEEE4dataB8ue170006Ev, symObjAddr: 0x6CF4, symBinAddr: 0x100008C00, symSize: 0x28 }
  - { offsetInCU: 0xFFE3, offset: 0xFFE3, size: 0x8, addend: 0x0, symName: __ZNKSt3__16vectorIjNS_9allocatorIjEEE8capacityB8ue170006Ev, symObjAddr: 0x6D1C, symBinAddr: 0x100008C28, symSize: 0x40 }
  - { offsetInCU: 0x10008, offset: 0x10008, size: 0x8, addend: 0x0, symName: __ZNKSt3__16vectorIjNS_9allocatorIjEEE9__end_capB8ue170006Ev, symObjAddr: 0x6D5C, symBinAddr: 0x100008C68, symSize: 0x28 }
  - { offsetInCU: 0x1002D, offset: 0x1002D, size: 0x8, addend: 0x0, symName: __ZNKSt3__117__compressed_pairIPjNS_9allocatorIjEEE5firstB8ue170006Ev, symObjAddr: 0x6D84, symBinAddr: 0x100008C90, symSize: 0x24 }
  - { offsetInCU: 0x10052, offset: 0x10052, size: 0x8, addend: 0x0, symName: __ZNKSt3__122__compressed_pair_elemIPjLi0ELb0EE5__getB8ue170006Ev, symObjAddr: 0x6DA8, symBinAddr: 0x100008CB4, symSize: 0x14 }
  - { offsetInCU: 0x10077, offset: 0x10077, size: 0x8, addend: 0x0, symName: __ZNSt3__16vectorIiNS_9allocatorIiEEE17__destruct_at_endB8ue170006EPi, symObjAddr: 0x6DBC, symBinAddr: 0x100008CC8, symSize: 0x4C }
  - { offsetInCU: 0x100B9, offset: 0x100B9, size: 0x8, addend: 0x0, symName: __ZNSt3__16vectorIjNS_9allocatorIjEEE9push_backB8ue170006EOj, symObjAddr: 0x6E08, symBinAddr: 0x100008D14, symSize: 0x6C }
  - { offsetInCU: 0x100EF, offset: 0x100EF, size: 0x8, addend: 0x0, symName: __ZNSt3__16vectorIjNS_9allocatorIjEEE9__end_capB8ue170006Ev, symObjAddr: 0x6E74, symBinAddr: 0x100008D80, symSize: 0x28 }
  - { offsetInCU: 0x10119, offset: 0x10119, size: 0x8, addend: 0x0, symName: __ZNSt3__16vectorIjNS_9allocatorIjEEE22__construct_one_at_endB8ue170006IJjEEEvDpOT_, symObjAddr: 0x6E9C, symBinAddr: 0x100008DA8, symSize: 0x90 }
  - { offsetInCU: 0x10166, offset: 0x10166, size: 0x8, addend: 0x0, symName: __ZNSt3__16vectorIjNS_9allocatorIjEEE21__push_back_slow_pathIjEEvOT_, symObjAddr: 0x6F2C, symBinAddr: 0x100008E38, symSize: 0xD8 }
  - { offsetInCU: 0x101C3, offset: 0x101C3, size: 0x8, addend: 0x0, symName: __ZNSt3__117__compressed_pairIPjNS_9allocatorIjEEE5firstB8ue170006Ev, symObjAddr: 0x7004, symBinAddr: 0x100008F10, symSize: 0x24 }
  - { offsetInCU: 0x101E8, offset: 0x101E8, size: 0x8, addend: 0x0, symName: __ZNSt3__122__compressed_pair_elemIPjLi0ELb0EE5__getB8ue170006Ev, symObjAddr: 0x7028, symBinAddr: 0x100008F34, symSize: 0x14 }
  - { offsetInCU: 0x10225, offset: 0x10225, size: 0x8, addend: 0x0, symName: __ZNSt3__16vectorIjNS_9allocatorIjEEE21_ConstructTransactionC1B8ue170006ERS3_m, symObjAddr: 0x703C, symBinAddr: 0x100008F48, symSize: 0x3C }
  - { offsetInCU: 0x1026C, offset: 0x1026C, size: 0x8, addend: 0x0, symName: __ZNSt3__116allocator_traitsINS_9allocatorIjEEE9constructB8ue170006IjJjEvEEvRS2_PT_DpOT0_, symObjAddr: 0x7078, symBinAddr: 0x100008F84, symSize: 0x34 }
  - { offsetInCU: 0x102C2, offset: 0x102C2, size: 0x8, addend: 0x0, symName: __ZNSt3__16vectorIjNS_9allocatorIjEEE21_ConstructTransactionD1B8ue170006Ev, symObjAddr: 0x70AC, symBinAddr: 0x100008FB8, symSize: 0x2C }
  - { offsetInCU: 0x102EB, offset: 0x102EB, size: 0x8, addend: 0x0, symName: __ZNSt3__16vectorIjNS_9allocatorIjEEE21_ConstructTransactionC2B8ue170006ERS3_m, symObjAddr: 0x70D8, symBinAddr: 0x100008FE4, symSize: 0x44 }
  - { offsetInCU: 0x10332, offset: 0x10332, size: 0x8, addend: 0x0, symName: __ZNSt3__19allocatorIjE9constructB8ue170006IjJjEEEvPT_DpOT0_, symObjAddr: 0x711C, symBinAddr: 0x100009028, symSize: 0x28 }
  - { offsetInCU: 0x10387, offset: 0x10387, size: 0x8, addend: 0x0, symName: __ZNSt3__16vectorIjNS_9allocatorIjEEE21_ConstructTransactionD2B8ue170006Ev, symObjAddr: 0x7144, symBinAddr: 0x100009050, symSize: 0x20 }
  - { offsetInCU: 0x103AF, offset: 0x103AF, size: 0x8, addend: 0x0, symName: __ZNKSt3__16vectorIjNS_9allocatorIjEEE11__recommendB8ue170006Em, symObjAddr: 0x7164, symBinAddr: 0x100009070, symSize: 0xB4 }
  - { offsetInCU: 0x10403, offset: 0x10403, size: 0x8, addend: 0x0, symName: __ZNSt3__114__split_bufferIjRNS_9allocatorIjEEEC1EmmS3_, symObjAddr: 0x7218, symBinAddr: 0x100009124, symSize: 0x44 }
  - { offsetInCU: 0x10458, offset: 0x10458, size: 0x8, addend: 0x0, symName: __ZNSt3__114__split_bufferIjRNS_9allocatorIjEEED1Ev, symObjAddr: 0x736C, symBinAddr: 0x100009278, symSize: 0x2C }
  - { offsetInCU: 0x10482, offset: 0x10482, size: 0x8, addend: 0x0, symName: __ZNKSt3__16vectorIjNS_9allocatorIjEEE8max_sizeEv, symObjAddr: 0x7398, symBinAddr: 0x1000092A4, symSize: 0x60 }
  - { offsetInCU: 0x104A9, offset: 0x104A9, size: 0x8, addend: 0x0, symName: __ZNKSt3__16vectorIjNS_9allocatorIjEEE20__throw_length_errorB8ue170006Ev, symObjAddr: 0x73F8, symBinAddr: 0x100009304, symSize: 0x1C }
  - { offsetInCU: 0x104D8, offset: 0x104D8, size: 0x8, addend: 0x0, symName: __ZNSt3__116allocator_traitsINS_9allocatorIjEEE8max_sizeB8ue170006IS2_vEEmRKS2_, symObjAddr: 0x7414, symBinAddr: 0x100009320, symSize: 0x24 }
  - { offsetInCU: 0x10506, offset: 0x10506, size: 0x8, addend: 0x0, symName: __ZNKSt3__16vectorIjNS_9allocatorIjEEE7__allocB8ue170006Ev, symObjAddr: 0x7438, symBinAddr: 0x100009344, symSize: 0x28 }
  - { offsetInCU: 0x1052B, offset: 0x1052B, size: 0x8, addend: 0x0, symName: __ZNKSt3__19allocatorIjE8max_sizeB8ue170006Ev, symObjAddr: 0x7460, symBinAddr: 0x10000936C, symSize: 0x14 }
  - { offsetInCU: 0x10550, offset: 0x10550, size: 0x8, addend: 0x0, symName: __ZNKSt3__117__compressed_pairIPjNS_9allocatorIjEEE6secondB8ue170006Ev, symObjAddr: 0x7474, symBinAddr: 0x100009380, symSize: 0x24 }
  - { offsetInCU: 0x10575, offset: 0x10575, size: 0x8, addend: 0x0, symName: __ZNKSt3__122__compressed_pair_elemINS_9allocatorIjEELi1ELb1EE5__getB8ue170006Ev, symObjAddr: 0x7498, symBinAddr: 0x1000093A4, symSize: 0x14 }
  - { offsetInCU: 0x1059A, offset: 0x1059A, size: 0x8, addend: 0x0, symName: __ZNSt3__114__split_bufferIjRNS_9allocatorIjEEEC2EmmS3_, symObjAddr: 0x74AC, symBinAddr: 0x1000093B8, symSize: 0xD4 }
  - { offsetInCU: 0x1060B, offset: 0x1060B, size: 0x8, addend: 0x0, symName: __ZNSt3__117__compressed_pairIPjRNS_9allocatorIjEEEC1B8ue170006IDnS4_EEOT_OT0_, symObjAddr: 0x7580, symBinAddr: 0x10000948C, symSize: 0x3C }
  - { offsetInCU: 0x10662, offset: 0x10662, size: 0x8, addend: 0x0, symName: __ZNSt3__114__split_bufferIjRNS_9allocatorIjEEE7__allocB8ue170006Ev, symObjAddr: 0x75FC, symBinAddr: 0x100009508, symSize: 0x28 }
  - { offsetInCU: 0x10687, offset: 0x10687, size: 0x8, addend: 0x0, symName: __ZNSt3__114__split_bufferIjRNS_9allocatorIjEEE9__end_capB8ue170006Ev, symObjAddr: 0x7624, symBinAddr: 0x100009530, symSize: 0x28 }
  - { offsetInCU: 0x106AB, offset: 0x106AB, size: 0x8, addend: 0x0, symName: __ZNSt3__117__compressed_pairIPjRNS_9allocatorIjEEEC2B8ue170006IDnS4_EEOT_OT0_, symObjAddr: 0x764C, symBinAddr: 0x100009558, symSize: 0x48 }
  - { offsetInCU: 0x10702, offset: 0x10702, size: 0x8, addend: 0x0, symName: __ZNSt3__122__compressed_pair_elemIPjLi0ELb0EEC2B8ue170006IDnvEEOT_, symObjAddr: 0x7694, symBinAddr: 0x1000095A0, symSize: 0x1C }
  - { offsetInCU: 0x10743, offset: 0x10743, size: 0x8, addend: 0x0, symName: __ZNSt3__122__compressed_pair_elemIRNS_9allocatorIjEELi1ELb0EEC2B8ue170006IS3_vEEOT_, symObjAddr: 0x76B0, symBinAddr: 0x1000095BC, symSize: 0x20 }
  - { offsetInCU: 0x10784, offset: 0x10784, size: 0x8, addend: 0x0, symName: __ZNSt3__19allocatorIjE8allocateB8ue170006Em, symObjAddr: 0x76D0, symBinAddr: 0x1000095DC, symSize: 0x58 }
  - { offsetInCU: 0x107B7, offset: 0x107B7, size: 0x8, addend: 0x0, symName: __ZNSt3__117__compressed_pairIPjRNS_9allocatorIjEEE6secondB8ue170006Ev, symObjAddr: 0x7728, symBinAddr: 0x100009634, symSize: 0x28 }
  - { offsetInCU: 0x107DC, offset: 0x107DC, size: 0x8, addend: 0x0, symName: __ZNSt3__122__compressed_pair_elemIRNS_9allocatorIjEELi1ELb0EE5__getB8ue170006Ev, symObjAddr: 0x7750, symBinAddr: 0x10000965C, symSize: 0x18 }
  - { offsetInCU: 0x10801, offset: 0x10801, size: 0x8, addend: 0x0, symName: __ZNSt3__117__compressed_pairIPjRNS_9allocatorIjEEE5firstB8ue170006Ev, symObjAddr: 0x7768, symBinAddr: 0x100009674, symSize: 0x24 }
  - { offsetInCU: 0x10826, offset: 0x10826, size: 0x8, addend: 0x0, symName: __ZNKSt3__16vectorIjNS_9allocatorIjEEE17__annotate_deleteB8ue170006Ev, symObjAddr: 0x778C, symBinAddr: 0x100009698, symSize: 0xB8 }
  - { offsetInCU: 0x1084A, offset: 0x1084A, size: 0x8, addend: 0x0, symName: __ZNSt3__116reverse_iteratorIPjEC1B8ue170006ES1_, symObjAddr: 0x78BC, symBinAddr: 0x1000097C8, symSize: 0x34 }
  - { offsetInCU: 0x10881, offset: 0x10881, size: 0x8, addend: 0x0, symName: __ZNKSt3__116reverse_iteratorIPjE4baseB8ue170006Ev, symObjAddr: 0x78F0, symBinAddr: 0x1000097FC, symSize: 0x18 }
  - { offsetInCU: 0x108A6, offset: 0x108A6, size: 0x8, addend: 0x0, symName: __ZNKSt3__16vectorIjNS_9allocatorIjEEE14__annotate_newB8ue170006Em, symObjAddr: 0x7944, symBinAddr: 0x100009850, symSize: 0xAC }
  - { offsetInCU: 0x108F3, offset: 0x108F3, size: 0x8, addend: 0x0, symName: __ZNKSt3__111__move_loopINS_17_ClassicAlgPolicyEEclB8ue170006INS_16reverse_iteratorIPjEES6_S6_EENS_4pairIT_T1_EES8_T0_S9_, symObjAddr: 0x7CE0, symBinAddr: 0x100009BEC, symSize: 0xA0 }
  - { offsetInCU: 0x1095D, offset: 0x1095D, size: 0x8, addend: 0x0, symName: __ZNSt3__18_IterOpsINS_17_ClassicAlgPolicyEE11__iter_moveB8ue170006IRNS_16reverse_iteratorIPjEEEENS_9enable_ifIXsr12is_referenceIDTdeclsr3stdE7declvalIRT_EEEEE5valueEDTclsr3stdE4movedeclsr3stdE7declvalISA_EEEEE4typeEOS9_, symObjAddr: 0x7F14, symBinAddr: 0x100009E20, symSize: 0x28 }
  - { offsetInCU: 0x10989, offset: 0x10989, size: 0x8, addend: 0x0, symName: __ZNKSt3__116reverse_iteratorIPjEdeB8ue170006Ev, symObjAddr: 0x7F3C, symBinAddr: 0x100009E48, symSize: 0x28 }
  - { offsetInCU: 0x109BC, offset: 0x109BC, size: 0x8, addend: 0x0, symName: __ZNSt3__116reverse_iteratorIPjEppB8ue170006Ev, symObjAddr: 0x7F64, symBinAddr: 0x100009E70, symSize: 0x20 }
  - { offsetInCU: 0x109E1, offset: 0x109E1, size: 0x8, addend: 0x0, symName: __ZNSt3__18_IterOpsINS_17_ClassicAlgPolicyEE25__validate_iter_referenceB8ue170006IRNS_16reverse_iteratorIPjEEEEvv, symObjAddr: 0x7F84, symBinAddr: 0x100009E90, symSize: 0x4 }
  - { offsetInCU: 0x109FF, offset: 0x109FF, size: 0x8, addend: 0x0, symName: __ZNSt3__118__unwrap_iter_implINS_16reverse_iteratorIPjEELb0EE8__unwrapB8ue170006ES3_, symObjAddr: 0x7F88, symBinAddr: 0x100009E94, symSize: 0x24 }
  - { offsetInCU: 0x10A26, offset: 0x10A26, size: 0x8, addend: 0x0, symName: __ZNSt3__14pairINS_16reverse_iteratorIPjEES3_EC1B8ue170006IS3_S3_LPv0EEEOT_OT0_, symObjAddr: 0x7FAC, symBinAddr: 0x100009EB8, symSize: 0x3C }
  - { offsetInCU: 0x10A83, offset: 0x10A83, size: 0x8, addend: 0x0, symName: __ZNSt3__14pairINS_16reverse_iteratorIPjEES3_EC2B8ue170006IS3_S3_LPv0EEEOT_OT0_, symObjAddr: 0x7FE8, symBinAddr: 0x100009EF4, symSize: 0x34 }
  - { offsetInCU: 0x10AE0, offset: 0x10AE0, size: 0x8, addend: 0x0, symName: __ZNSt3__118__unwrap_iter_implINS_16reverse_iteratorIPjEELb0EE8__rewrapB8ue170006ES3_S3_, symObjAddr: 0x801C, symBinAddr: 0x100009F28, symSize: 0x2C }
  - { offsetInCU: 0x10B0E, offset: 0x10B0E, size: 0x8, addend: 0x0, symName: __ZNSt3__116reverse_iteratorIPjEC2B8ue170006ES1_, symObjAddr: 0x8048, symBinAddr: 0x100009F54, symSize: 0x28 }
  - { offsetInCU: 0x10B45, offset: 0x10B45, size: 0x8, addend: 0x0, symName: __ZNSt3__114__split_bufferIjRNS_9allocatorIjEEED2Ev, symObjAddr: 0x8070, symBinAddr: 0x100009F7C, symSize: 0x8C }
  - { offsetInCU: 0x10B70, offset: 0x10B70, size: 0x8, addend: 0x0, symName: __ZNSt3__114__split_bufferIjRNS_9allocatorIjEEE5clearB8ue170006Ev, symObjAddr: 0x80FC, symBinAddr: 0x10000A008, symSize: 0x28 }
  - { offsetInCU: 0x10B95, offset: 0x10B95, size: 0x8, addend: 0x0, symName: __ZNSt3__116allocator_traitsINS_9allocatorIjEEE10deallocateB8ue170006ERS2_Pjm, symObjAddr: 0x8124, symBinAddr: 0x10000A030, symSize: 0x34 }
  - { offsetInCU: 0x10BD7, offset: 0x10BD7, size: 0x8, addend: 0x0, symName: __ZNKSt3__114__split_bufferIjRNS_9allocatorIjEEE8capacityB8ue170006Ev, symObjAddr: 0x8158, symBinAddr: 0x10000A064, symSize: 0x40 }
  - { offsetInCU: 0x10BFC, offset: 0x10BFC, size: 0x8, addend: 0x0, symName: __ZNSt3__114__split_bufferIjRNS_9allocatorIjEEE17__destruct_at_endB8ue170006EPj, symObjAddr: 0x8198, symBinAddr: 0x10000A0A4, symSize: 0x2C }
  - { offsetInCU: 0x10C2E, offset: 0x10C2E, size: 0x8, addend: 0x0, symName: __ZNSt3__114__split_bufferIjRNS_9allocatorIjEEE17__destruct_at_endB8ue170006EPjNS_17integral_constantIbLb0EEE, symObjAddr: 0x81C4, symBinAddr: 0x10000A0D0, symSize: 0x80 }
  - { offsetInCU: 0x10C6E, offset: 0x10C6E, size: 0x8, addend: 0x0, symName: __ZNSt3__19allocatorIjE10deallocateB8ue170006EPjm, symObjAddr: 0x8244, symBinAddr: 0x10000A150, symSize: 0x40 }
  - { offsetInCU: 0x10CAF, offset: 0x10CAF, size: 0x8, addend: 0x0, symName: __ZNKSt3__114__split_bufferIjRNS_9allocatorIjEEE9__end_capB8ue170006Ev, symObjAddr: 0x8284, symBinAddr: 0x10000A190, symSize: 0x28 }
  - { offsetInCU: 0x10CD4, offset: 0x10CD4, size: 0x8, addend: 0x0, symName: __ZNKSt3__117__compressed_pairIPjRNS_9allocatorIjEEE5firstB8ue170006Ev, symObjAddr: 0x82AC, symBinAddr: 0x10000A1B8, symSize: 0x24 }
  - { offsetInCU: 0x10CF9, offset: 0x10CF9, size: 0x8, addend: 0x0, symName: __ZL9satisfiedP6clause, symObjAddr: 0x82D0, symBinAddr: 0x10000A1DC, symSize: 0xC8 }
  - { offsetInCU: 0x10D7A, offset: 0x10D7A, size: 0x8, addend: 0x0, symName: __ZL13delete_clauseP6clause, symObjAddr: 0x8398, symBinAddr: 0x10000A2A4, symSize: 0xD0 }
  - { offsetInCU: 0x10DA3, offset: 0x10DA3, size: 0x8, addend: 0x0, symName: __ZNSt3__16vectorIP6clauseNS_9allocatorIS2_EEEC2B8ue170006Ev, symObjAddr: 0x8468, symBinAddr: 0x10000A374, symSize: 0x4C }
  - { offsetInCU: 0x10DD0, offset: 0x10DD0, size: 0x8, addend: 0x0, symName: __ZNSt3__117__compressed_pairIPP6clauseNS_9allocatorIS2_EEEC1B8ue170006IDnNS_18__default_init_tagEEEOT_OT0_, symObjAddr: 0x84B4, symBinAddr: 0x10000A3C0, symSize: 0x3C }
  - { offsetInCU: 0x10E26, offset: 0x10E26, size: 0x8, addend: 0x0, symName: __ZNSt3__117__compressed_pairIPP6clauseNS_9allocatorIS2_EEEC2B8ue170006IDnNS_18__default_init_tagEEEOT_OT0_, symObjAddr: 0x84F0, symBinAddr: 0x10000A3FC, symSize: 0x40 }
  - { offsetInCU: 0x10E7C, offset: 0x10E7C, size: 0x8, addend: 0x0, symName: __ZNSt3__122__compressed_pair_elemINS_9allocatorIP6clauseEELi1ELb1EEC2B8ue170006ENS_18__default_init_tagE, symObjAddr: 0x8530, symBinAddr: 0x10000A43C, symSize: 0x2C }
  - { offsetInCU: 0x10EAF, offset: 0x10EAF, size: 0x8, addend: 0x0, symName: __ZNSt3__19allocatorIP6clauseEC2B8ue170006Ev, symObjAddr: 0x855C, symBinAddr: 0x10000A468, symSize: 0x2C }
  - { offsetInCU: 0x10ED8, offset: 0x10ED8, size: 0x8, addend: 0x0, symName: __ZNSt3__116__non_trivial_ifILb1ENS_9allocatorIP6clauseEEEC2B8ue170006Ev, symObjAddr: 0x8588, symBinAddr: 0x10000A494, symSize: 0x14 }
  - { offsetInCU: 0x10F00, offset: 0x10F00, size: 0x8, addend: 0x0, symName: __ZNSt3__16vectorIP6clauseNS_9allocatorIS2_EEED2B8ue170006Ev, symObjAddr: 0x859C, symBinAddr: 0x10000A4A8, symSize: 0x44 }
  - { offsetInCU: 0x10F28, offset: 0x10F28, size: 0x8, addend: 0x0, symName: __ZNSt3__16vectorIP6clauseNS_9allocatorIS2_EEE16__destroy_vectorC1B8ue170006ERS5_, symObjAddr: 0x85E0, symBinAddr: 0x10000A4EC, symSize: 0x34 }
  - { offsetInCU: 0x10F60, offset: 0x10F60, size: 0x8, addend: 0x0, symName: __ZNSt3__16vectorIP6clauseNS_9allocatorIS2_EEE16__destroy_vectorclB8ue170006Ev, symObjAddr: 0x8614, symBinAddr: 0x10000A520, symSize: 0x90 }
  - { offsetInCU: 0x10F85, offset: 0x10F85, size: 0x8, addend: 0x0, symName: __ZNSt3__16vectorIP6clauseNS_9allocatorIS2_EEE16__destroy_vectorC2B8ue170006ERS5_, symObjAddr: 0x86A4, symBinAddr: 0x10000A5B0, symSize: 0x20 }
  - { offsetInCU: 0x10FBD, offset: 0x10FBD, size: 0x8, addend: 0x0, symName: __ZNSt3__16vectorIP6clauseNS_9allocatorIS2_EEE7__clearB8ue170006Ev, symObjAddr: 0x86C4, symBinAddr: 0x10000A5D0, symSize: 0x28 }
  - { offsetInCU: 0x10FE2, offset: 0x10FE2, size: 0x8, addend: 0x0, symName: __ZNSt3__16vectorIP6clauseNS_9allocatorIS2_EEE22__base_destruct_at_endB8ue170006EPS2_, symObjAddr: 0x86EC, symBinAddr: 0x10000A5F8, symSize: 0x8C }
  - { offsetInCU: 0x11024, offset: 0x11024, size: 0x8, addend: 0x0, symName: __ZNSt3__16vectorIiNS_9allocatorIiEEEC2B8ue170006Ev, symObjAddr: 0x8778, symBinAddr: 0x10000A684, symSize: 0x4C }
  - { offsetInCU: 0x1104C, offset: 0x1104C, size: 0x8, addend: 0x0, symName: __ZNSt3__117__compressed_pairIPiNS_9allocatorIiEEEC1B8ue170006IDnNS_18__default_init_tagEEEOT_OT0_, symObjAddr: 0x87C4, symBinAddr: 0x10000A6D0, symSize: 0x3C }
  - { offsetInCU: 0x110A2, offset: 0x110A2, size: 0x8, addend: 0x0, symName: __ZNSt3__117__compressed_pairIPiNS_9allocatorIiEEEC2B8ue170006IDnNS_18__default_init_tagEEEOT_OT0_, symObjAddr: 0x8800, symBinAddr: 0x10000A70C, symSize: 0x40 }
  - { offsetInCU: 0x110F8, offset: 0x110F8, size: 0x8, addend: 0x0, symName: __ZNSt3__122__compressed_pair_elemINS_9allocatorIiEELi1ELb1EEC2B8ue170006ENS_18__default_init_tagE, symObjAddr: 0x8840, symBinAddr: 0x10000A74C, symSize: 0x2C }
  - { offsetInCU: 0x1112B, offset: 0x1112B, size: 0x8, addend: 0x0, symName: __ZNSt3__19allocatorIiEC2B8ue170006Ev, symObjAddr: 0x886C, symBinAddr: 0x10000A778, symSize: 0x2C }
  - { offsetInCU: 0x11154, offset: 0x11154, size: 0x8, addend: 0x0, symName: __ZNSt3__116__non_trivial_ifILb1ENS_9allocatorIiEEEC2B8ue170006Ev, symObjAddr: 0x8898, symBinAddr: 0x10000A7A4, symSize: 0x14 }
  - { offsetInCU: 0x1117C, offset: 0x1117C, size: 0x8, addend: 0x0, symName: __ZNSt3__16vectorIiNS_9allocatorIiEEED2B8ue170006Ev, symObjAddr: 0x88AC, symBinAddr: 0x10000A7B8, symSize: 0x44 }
  - { offsetInCU: 0x111A4, offset: 0x111A4, size: 0x8, addend: 0x0, symName: __ZNSt3__16vectorIiNS_9allocatorIiEEE16__destroy_vectorC1B8ue170006ERS3_, symObjAddr: 0x88F0, symBinAddr: 0x10000A7FC, symSize: 0x34 }
  - { offsetInCU: 0x111DC, offset: 0x111DC, size: 0x8, addend: 0x0, symName: __ZNSt3__16vectorIiNS_9allocatorIiEEE16__destroy_vectorclB8ue170006Ev, symObjAddr: 0x8924, symBinAddr: 0x10000A830, symSize: 0x90 }
  - { offsetInCU: 0x11201, offset: 0x11201, size: 0x8, addend: 0x0, symName: __ZNSt3__16vectorIiNS_9allocatorIiEEE16__destroy_vectorC2B8ue170006ERS3_, symObjAddr: 0x89B4, symBinAddr: 0x10000A8C0, symSize: 0x20 }
  - { offsetInCU: 0x11238, offset: 0x11238, size: 0x8, addend: 0x0, symName: __ZNSt3__16vectorIjNS_9allocatorIjEEEC2B8ue170006Ev, symObjAddr: 0x89D4, symBinAddr: 0x10000A8E0, symSize: 0x4C }
  - { offsetInCU: 0x11260, offset: 0x11260, size: 0x8, addend: 0x0, symName: __ZNSt3__117__compressed_pairIPjNS_9allocatorIjEEEC1B8ue170006IDnNS_18__default_init_tagEEEOT_OT0_, symObjAddr: 0x8A20, symBinAddr: 0x10000A92C, symSize: 0x3C }
  - { offsetInCU: 0x112B6, offset: 0x112B6, size: 0x8, addend: 0x0, symName: __ZNSt3__117__compressed_pairIPjNS_9allocatorIjEEEC2B8ue170006IDnNS_18__default_init_tagEEEOT_OT0_, symObjAddr: 0x8A5C, symBinAddr: 0x10000A968, symSize: 0x40 }
  - { offsetInCU: 0x1130C, offset: 0x1130C, size: 0x8, addend: 0x0, symName: __ZNSt3__122__compressed_pair_elemINS_9allocatorIjEELi1ELb1EEC2B8ue170006ENS_18__default_init_tagE, symObjAddr: 0x8A9C, symBinAddr: 0x10000A9A8, symSize: 0x2C }
  - { offsetInCU: 0x1133F, offset: 0x1133F, size: 0x8, addend: 0x0, symName: __ZNSt3__19allocatorIjEC2B8ue170006Ev, symObjAddr: 0x8AC8, symBinAddr: 0x10000A9D4, symSize: 0x2C }
  - { offsetInCU: 0x11368, offset: 0x11368, size: 0x8, addend: 0x0, symName: __ZNSt3__116__non_trivial_ifILb1ENS_9allocatorIjEEEC2B8ue170006Ev, symObjAddr: 0x8AF4, symBinAddr: 0x10000AA00, symSize: 0x14 }
  - { offsetInCU: 0x11390, offset: 0x11390, size: 0x8, addend: 0x0, symName: __ZNSt3__16vectorIjNS_9allocatorIjEEED2B8ue170006Ev, symObjAddr: 0x8B08, symBinAddr: 0x10000AA14, symSize: 0x44 }
  - { offsetInCU: 0x113B8, offset: 0x113B8, size: 0x8, addend: 0x0, symName: __ZNSt3__16vectorIjNS_9allocatorIjEEE16__destroy_vectorC1B8ue170006ERS3_, symObjAddr: 0x8B4C, symBinAddr: 0x10000AA58, symSize: 0x34 }
  - { offsetInCU: 0x113F0, offset: 0x113F0, size: 0x8, addend: 0x0, symName: __ZNSt3__16vectorIjNS_9allocatorIjEEE16__destroy_vectorclB8ue170006Ev, symObjAddr: 0x8B80, symBinAddr: 0x10000AA8C, symSize: 0x90 }
  - { offsetInCU: 0x11415, offset: 0x11415, size: 0x8, addend: 0x0, symName: __ZNSt3__16vectorIjNS_9allocatorIjEEE16__destroy_vectorC2B8ue170006ERS3_, symObjAddr: 0x8C10, symBinAddr: 0x10000AB1C, symSize: 0x20 }
  - { offsetInCU: 0x1144D, offset: 0x1144D, size: 0x8, addend: 0x0, symName: __ZNSt3__16vectorIjNS_9allocatorIjEEE7__clearB8ue170006Ev, symObjAddr: 0x8C30, symBinAddr: 0x10000AB3C, symSize: 0x28 }
...
